SF:/home/noah/src/pforge/crates/pforge-cli/src/commands/build.rs
FN:4,_RNvNtNtCsjNOQr3x479x_6pforge8commands5build7execute
FN:4,_RNvNtNtCsdvcviob7z5Z_6pforge8commands5build7execute
FNDA:0,_RNvNtNtCsjNOQr3x479x_6pforge8commands5build7execute
FNDA:0,_RNvNtNtCsdvcviob7z5Z_6pforge8commands5build7execute
FNF:1
FNH:0
DA:4,0
DA:5,0
DA:7,0
DA:8,0
DA:10,0
DA:11,0
DA:12,0
DA:13,0
DA:14,0
DA:15,0
DA:17,0
DA:19,0
DA:20,0
DA:21,0
DA:22,0
DA:25,0
DA:26,0
BRF:0
BRH:0
LF:17
LH:0
end_of_record
SF:/home/noah/src/pforge/crates/pforge-cli/src/commands/dev.rs
FN:3,_RNvNtNtCsjNOQr3x479x_6pforge8commands3dev7execute
FN:3,_RNCNvNtNtCsjNOQr3x479x_6pforge8commands3dev7execute0B7_
FN:3,_RNCNvNtNtCsdvcviob7z5Z_6pforge8commands3dev7execute0B7_
FN:3,_RNvNtNtCsdvcviob7z5Z_6pforge8commands3dev7execute
FNDA:0,_RNvNtNtCsjNOQr3x479x_6pforge8commands3dev7execute
FNDA:0,_RNCNvNtNtCsjNOQr3x479x_6pforge8commands3dev7execute0B7_
FNDA:0,_RNCNvNtNtCsdvcviob7z5Z_6pforge8commands3dev7execute0B7_
FNDA:0,_RNvNtNtCsdvcviob7z5Z_6pforge8commands3dev7execute
FNF:2
FNH:0
DA:3,0
DA:4,0
DA:5,0
DA:6,0
DA:9,0
DA:10,0
DA:12,0
DA:13,0
BRF:0
BRH:0
LF:9
LH:0
end_of_record
SF:/home/noah/src/pforge/crates/pforge-cli/src/commands/new.rs
FN:11,_RNvNtNtCsjNOQr3x479x_6pforge8commands3new7execute
FN:11,_RNvNtNtCsdvcviob7z5Z_6pforge8commands3new7execute
FNDA:0,_RNvNtNtCsjNOQr3x479x_6pforge8commands3new7execute
FNDA:0,_RNvNtNtCsdvcviob7z5Z_6pforge8commands3new7execute
FNF:1
FNH:0
DA:11,0
DA:12,0
DA:13,0
DA:15,0
DA:18,0
DA:19,0
DA:22,0
DA:23,0
DA:25,0
DA:26,0
DA:29,0
DA:30,0
DA:31,0
DA:33,0
DA:34,0
DA:35,0
DA:37,0
DA:38,0
DA:39,0
DA:41,0
DA:42,0
DA:44,0
DA:45,0
DA:47,0
DA:48,0
DA:49,0
DA:50,0
DA:52,0
DA:53,0
BRF:0
BRH:0
LF:29
LH:0
end_of_record
SF:/home/noah/src/pforge/crates/pforge-cli/src/commands/serve.rs
FN:6,_RNCNvNtNtCsjNOQr3x479x_6pforge8commands5serve7execute0B7_
FN:6,_RNvNtNtCsjNOQr3x479x_6pforge8commands5serve7execute
FN:6,_RNCNvNtNtCsdvcviob7z5Z_6pforge8commands5serve7execute0B7_
FN:6,_RNvNtNtCsdvcviob7z5Z_6pforge8commands5serve7execute
FNDA:0,_RNCNvNtNtCsjNOQr3x479x_6pforge8commands5serve7execute0B7_
FNDA:0,_RNvNtNtCsjNOQr3x479x_6pforge8commands5serve7execute
FNDA:0,_RNCNvNtNtCsdvcviob7z5Z_6pforge8commands5serve7execute0B7_
FNDA:0,_RNvNtNtCsdvcviob7z5Z_6pforge8commands5serve7execute
FNF:2
FNH:0
DA:6,0
DA:7,0
DA:8,0
DA:11,0
DA:12,0
DA:14,0
DA:15,0
DA:16,0
DA:17,0
DA:20,0
DA:21,0
DA:23,0
DA:24,0
BRF:0
BRH:0
LF:14
LH:0
end_of_record
SF:/home/noah/src/pforge/crates/pforge-cli/src/main.rs
FN:53,_RNCNvCsjNOQr3x479x_6pforge4main0B3_
FN:53,_RNvCsjNOQr3x479x_6pforge4main
FN:53,_RNCNvCsdvcviob7z5Z_6pforge4main0B3_
FN:53,_RNvCsdvcviob7z5Z_6pforge4main
FNDA:0,_RNCNvCsjNOQr3x479x_6pforge4main0B3_
FNDA:0,_RNvCsjNOQr3x479x_6pforge4main
FNDA:0,_RNCNvCsdvcviob7z5Z_6pforge4main0B3_
FNDA:0,_RNvCsdvcviob7z5Z_6pforge4main
FNF:2
FNH:0
DA:53,0
DA:54,0
DA:56,0
DA:57,0
DA:58,0
DA:59,0
DA:60,0
DA:61,0
DA:62,0
DA:63,0
DA:64,0
DA:65,0
DA:66,0
DA:67,0
DA:68,0
DA:69,0
DA:70,0
DA:71,0
DA:72,0
BRF:0
BRH:0
LF:30
LH:0
end_of_record
SF:/home/noah/src/pforge/crates/pforge-codegen/src/generator.rs
FN:136,_RNCNvNtCsjQfaWwCjDs4_14pforge_codegen9generator14to_pascal_case0B5_
FN:159,_RNCNvNtCsjQfaWwCjDs4_14pforge_codegen9generator17format_string_vec0B5_
FN:134,_RNvNtCsjQfaWwCjDs4_14pforge_codegen9generator14to_pascal_case
FN:157,_RNvNtCsjQfaWwCjDs4_14pforge_codegen9generator17format_string_vec
FN:17,_RNvNtCsjQfaWwCjDs4_14pforge_codegen9generator21generate_param_struct
FN:146,_RNvNtCsjQfaWwCjDs4_14pforge_codegen9generator21rust_type_from_simple
FN:58,_RNvNtCsjQfaWwCjDs4_14pforge_codegen9generator29generate_handler_registration
FNDA:0,_RNCNvNtCsjQfaWwCjDs4_14pforge_codegen9generator14to_pascal_case0B5_
FNDA:0,_RNCNvNtCsjQfaWwCjDs4_14pforge_codegen9generator17format_string_vec0B5_
FNDA:0,_RNvNtCsjQfaWwCjDs4_14pforge_codegen9generator14to_pascal_case
FNDA:0,_RNvNtCsjQfaWwCjDs4_14pforge_codegen9generator17format_string_vec
FNDA:0,_RNvNtCsjQfaWwCjDs4_14pforge_codegen9generator21generate_param_struct
FNDA:0,_RNvNtCsjQfaWwCjDs4_14pforge_codegen9generator21rust_type_from_simple
FNDA:0,_RNvNtCsjQfaWwCjDs4_14pforge_codegen9generator29generate_handler_registration
FNF:7
FNH:0
DA:17,0
DA:18,0
DA:19,0
DA:22,0
DA:23,0
DA:25,0
DA:27,0
DA:28,0
DA:29,0
DA:32,0
DA:33,0
DA:34,0
DA:36,0
DA:40,0
DA:41,0
DA:42,0
DA:45,0
DA:46,0
DA:47,0
DA:48,0
DA:49,0
DA:52,0
DA:54,0
DA:55,0
DA:58,0
DA:59,0
DA:61,0
DA:63,0
DA:64,0
DA:65,0
DA:66,0
DA:67,0
DA:68,0
DA:69,0
DA:70,0
DA:71,0
DA:72,0
DA:74,0
DA:75,0
DA:76,0
DA:77,0
DA:78,0
DA:79,0
DA:82,0
DA:83,0
DA:84,0
DA:85,0
DA:86,0
DA:87,0
DA:89,0
DA:90,0
DA:91,0
DA:92,0
DA:93,0
DA:94,0
DA:95,0
DA:96,0
DA:98,0
DA:99,0
DA:100,0
DA:101,0
DA:102,0
DA:103,0
DA:106,0
DA:107,0
DA:108,0
DA:109,0
DA:110,0
DA:112,0
DA:113,0
DA:114,0
DA:115,0
DA:116,0
DA:117,0
DA:118,0
DA:119,0
DA:120,0
DA:121,0
DA:122,0
DA:123,0
DA:124,0
DA:125,0
DA:129,0
DA:131,0
DA:132,0
DA:134,0
DA:135,0
DA:136,0
DA:137,0
DA:138,0
DA:139,0
DA:140,0
DA:142,0
DA:143,0
DA:144,0
DA:146,0
DA:147,0
DA:148,0
DA:149,0
DA:150,0
DA:151,0
DA:152,0
DA:153,0
DA:155,0
DA:157,0
DA:158,0
DA:159,0
DA:160,0
DA:161,0
DA:162,0
BRF:0
BRH:0
LF:112
LH:0
end_of_record
SF:/home/noah/src/pforge/crates/pforge-codegen/src/lib.rs
FN:39,_RNCNvCsjQfaWwCjDs4_14pforge_codegen20write_generated_code0B3_
FN:11,_RNvCsjQfaWwCjDs4_14pforge_codegen12generate_all
FN:36,_RNvCsjQfaWwCjDs4_14pforge_codegen20write_generated_code
FNDA:0,_RNCNvCsjQfaWwCjDs4_14pforge_codegen20write_generated_code0B3_
FNDA:0,_RNvCsjQfaWwCjDs4_14pforge_codegen12generate_all
FNDA:0,_RNvCsjQfaWwCjDs4_14pforge_codegen20write_generated_code
FNF:3
FNH:0
DA:11,0
DA:12,0
DA:15,0
DA:16,0
DA:17,0
DA:18,0
DA:19,0
DA:22,0
DA:23,0
DA:24,0
DA:25,0
DA:26,0
DA:30,0
DA:32,0
DA:33,0
DA:36,0
DA:37,0
DA:38,0
DA:39,0
DA:40,0
DA:41,0
BRF:0
BRH:0
LF:22
LH:0
end_of_record
SF:/home/noah/src/pforge/crates/pforge-config/src/parser.rs
FN:6,_RNCNvNtCs9vBuxdHBpCq_13pforge_config6parser12parse_config0B5_
FN:12,_RNCNvNtCs9vBuxdHBpCq_13pforge_config6parser21parse_config_from_str0B5_
FN:4,_RNvNtCs9vBuxdHBpCq_13pforge_config6parser12parse_config
FN:11,_RNvNtCs9vBuxdHBpCq_13pforge_config6parser21parse_config_from_str
FN:6,_RNCNvNtCsia8rptx9HPc_13pforge_config6parser12parse_config0B5_
FN:12,_RNCNvNtCsia8rptx9HPc_13pforge_config6parser21parse_config_from_str0B5_
FN:4,_RNvNtCsia8rptx9HPc_13pforge_config6parser12parse_config
FN:11,_RNvNtCsia8rptx9HPc_13pforge_config6parser21parse_config_from_str
FNDA:0,_RNCNvNtCs9vBuxdHBpCq_13pforge_config6parser12parse_config0B5_
FNDA:0,_RNCNvNtCs9vBuxdHBpCq_13pforge_config6parser21parse_config_from_str0B5_
FNDA:0,_RNvNtCs9vBuxdHBpCq_13pforge_config6parser12parse_config
FNDA:0,_RNvNtCs9vBuxdHBpCq_13pforge_config6parser21parse_config_from_str
FNDA:0,_RNCNvNtCsia8rptx9HPc_13pforge_config6parser12parse_config0B5_
FNDA:0,_RNCNvNtCsia8rptx9HPc_13pforge_config6parser21parse_config_from_str0B5_
FNDA:0,_RNvNtCsia8rptx9HPc_13pforge_config6parser12parse_config
FNDA:0,_RNvNtCsia8rptx9HPc_13pforge_config6parser21parse_config_from_str
FNF:4
FNH:0
DA:4,0
DA:5,0
DA:6,0
DA:8,0
DA:9,0
DA:11,0
DA:12,0
DA:13,0
BRF:0
BRH:0
LF:10
LH:0
end_of_record
SF:/home/noah/src/pforge/crates/pforge-config/src/types.rs
FN:86,_RNvMNtCs9vBuxdHBpCq_13pforge_config5typesNtB2_7ToolDef4name
FN:230,_RNvNtCs9vBuxdHBpCq_13pforge_config5types17default_transport
FN:241,_RNvXs0_NtCs9vBuxdHBpCq_13pforge_config5typesNtB5_11ErrorPolicyNtNtCs5GmCzIpY9Qj_4core7default7Default7default
FN:235,_RNvXs_NtCs9vBuxdHBpCq_13pforge_config5typesNtB4_17OptimizationLevelNtNtCs5GmCzIpY9Qj_4core7default7Default7default
FN:86,_RNvMNtCsia8rptx9HPc_13pforge_config5typesNtB2_7ToolDef4name
FN:230,_RNvNtCsia8rptx9HPc_13pforge_config5types17default_transport
FN:241,_RNvXs0_NtCsia8rptx9HPc_13pforge_config5typesNtB5_11ErrorPolicyNtNtCs5GmCzIpY9Qj_4core7default7Default7default
FN:235,_RNvXs_NtCsia8rptx9HPc_13pforge_config5typesNtB4_17OptimizationLevelNtNtCs5GmCzIpY9Qj_4core7default7Default7default
FNDA:0,_RNvMNtCs9vBuxdHBpCq_13pforge_config5typesNtB2_7ToolDef4name
FNDA:0,_RNvNtCs9vBuxdHBpCq_13pforge_config5types17default_transport
FNDA:0,_RNvXs0_NtCs9vBuxdHBpCq_13pforge_config5typesNtB5_11ErrorPolicyNtNtCs5GmCzIpY9Qj_4core7default7Default7default
FNDA:0,_RNvXs_NtCs9vBuxdHBpCq_13pforge_config5typesNtB4_17OptimizationLevelNtNtCs5GmCzIpY9Qj_4core7default7Default7default
FNDA:0,_RNvMNtCsia8rptx9HPc_13pforge_config5typesNtB2_7ToolDef4name
FNDA:0,_RNvNtCsia8rptx9HPc_13pforge_config5types17default_transport
FNDA:0,_RNvXs0_NtCsia8rptx9HPc_13pforge_config5typesNtB5_11ErrorPolicyNtNtCs5GmCzIpY9Qj_4core7default7Default7default
FNDA:0,_RNvXs_NtCsia8rptx9HPc_13pforge_config5typesNtB4_17OptimizationLevelNtNtCs5GmCzIpY9Qj_4core7default7Default7default
FNF:4
FNH:0
DA:86,0
DA:87,0
DA:88,0
DA:89,0
DA:90,0
DA:91,0
DA:93,0
DA:230,0
DA:231,0
DA:232,0
DA:235,0
DA:236,0
DA:237,0
DA:241,0
DA:242,0
DA:243,0
BRF:0
BRH:0
LF:16
LH:0
end_of_record
SF:/home/noah/src/pforge/crates/pforge-config/src/validator.rs
FN:4,_RNvNtCs9vBuxdHBpCq_13pforge_config9validator15validate_config
FN:24,_RNvNtCs9vBuxdHBpCq_13pforge_config9validator21validate_handler_path
FN:4,_RNvNtCsia8rptx9HPc_13pforge_config9validator15validate_config
FN:24,_RNvNtCsia8rptx9HPc_13pforge_config9validator21validate_handler_path
FNDA:0,_RNvNtCs9vBuxdHBpCq_13pforge_config9validator15validate_config
FNDA:0,_RNvNtCs9vBuxdHBpCq_13pforge_config9validator21validate_handler_path
FNDA:0,_RNvNtCsia8rptx9HPc_13pforge_config9validator15validate_config
FNDA:0,_RNvNtCsia8rptx9HPc_13pforge_config9validator21validate_handler_path
FNF:2
FNH:0
DA:4,0
DA:6,0
DA:7,0
DA:8,0
DA:9,0
DA:10,0
DA:11,0
DA:15,0
DA:16,0
DA:17,0
DA:18,0
DA:21,0
DA:22,0
DA:24,0
DA:25,0
DA:26,0
DA:27,0
DA:30,0
DA:31,0
DA:32,0
DA:33,0
DA:34,0
DA:35,0
DA:37,0
DA:38,0
BRF:0
BRH:0
LF:25
LH:0
end_of_record
SF:/home/noah/src/pforge/crates/pforge-integration-tests/integration_test.rs
FN:146,_RNCNCNCNCNvCs4NrvKuwgNTo_11integrations_23test_retry_with_timeout0000B9_
FN:143,_RNCNCNCNvCs4NrvKuwgNTo_11integrations_23test_retry_with_timeout000B7_
FN:296,_RNCNCNCNvCs4NrvKuwgNTo_11integrations_26test_full_middleware_stack000B7_
FN:306,_RNCNCNCNvCs4NrvKuwgNTo_11integrations_26test_full_middleware_stack0s_00B7_
FN:176,_RNCNCNCNvCs4NrvKuwgNTo_11integrations_32test_circuit_breaker_integration000B7_
FN:190,_RNCNCNCNvCs4NrvKuwgNTo_11integrations_32test_circuit_breaker_integration0s0_00B7_
FN:191,_RNCNCNCNvCs4NrvKuwgNTo_11integrations_32test_circuit_breaker_integration0s1_00B7_
FN:194,_RNCNCNCNvCs4NrvKuwgNTo_11integrations_32test_circuit_breaker_integration0s2_00B7_
FN:183,_RNCNCNCNvCs4NrvKuwgNTo_11integrations_32test_circuit_breaker_integration0s_00B7_
FN:122,_RNCNCNCNvCs4NrvKuwgNTo_11integrations_35test_middleware_chain_with_recovery000B7_
FN:141,_RNCNCNvCs4NrvKuwgNTo_11integrations_23test_retry_with_timeout00B5_
FN:298,_RNCNCNvCs4NrvKuwgNTo_11integrations_26test_full_middleware_stack00B5_
FN:308,_RNCNCNvCs4NrvKuwgNTo_11integrations_26test_full_middleware_stack0s_0B5_
FN:178,_RNCNCNvCs4NrvKuwgNTo_11integrations_32test_circuit_breaker_integration00B5_
FN:190,_RNCNCNvCs4NrvKuwgNTo_11integrations_32test_circuit_breaker_integration0s0_0B5_
FN:191,_RNCNCNvCs4NrvKuwgNTo_11integrations_32test_circuit_breaker_integration0s1_0B5_
FN:194,_RNCNCNvCs4NrvKuwgNTo_11integrations_32test_circuit_breaker_integration0s2_0B5_
FN:183,_RNCNCNvCs4NrvKuwgNTo_11integrations_32test_circuit_breaker_integration0s_0B5_
FN:124,_RNCNCNvCs4NrvKuwgNTo_11integrations_35test_middleware_chain_with_recovery00B5_
FN:133,_RNCNvCs4NrvKuwgNTo_11integrations_23test_retry_with_timeout0B3_
FN:278,_RNCNvCs4NrvKuwgNTo_11integrations_26test_full_middleware_stack0B3_
FN:164,_RNCNvCs4NrvKuwgNTo_11integrations_32test_circuit_breaker_integration0B3_
FN:243,_RNCNvCs4NrvKuwgNTo_11integrations_33test_error_tracker_classification0B3_
FN:199,_RNCNvCs4NrvKuwgNTo_11integrations_33test_prompt_manager_full_workflow0B3_
FN:89,_RNCNvCs4NrvKuwgNTo_11integrations_33test_state_management_persistence0B3_
FN:222,_RNCNvCs4NrvKuwgNTo_11integrations_34test_resource_manager_uri_matching0B3_
FN:107,_RNCNvCs4NrvKuwgNTo_11integrations_35test_middleware_chain_with_recovery0B3_
FN:133,_RNvCs4NrvKuwgNTo_11integrations_23test_retry_with_timeout
FN:278,_RNvCs4NrvKuwgNTo_11integrations_26test_full_middleware_stack
FN:266,_RNvCs4NrvKuwgNTo_11integrations_28test_forge_metadata_defaults
FN:164,_RNvCs4NrvKuwgNTo_11integrations_32test_circuit_breaker_integration
FN:243,_RNvCs4NrvKuwgNTo_11integrations_33test_error_tracker_classification
FN:199,_RNvCs4NrvKuwgNTo_11integrations_33test_prompt_manager_full_workflow
FN:89,_RNvCs4NrvKuwgNTo_11integrations_33test_state_management_persistence
FN:13,_RNvCs4NrvKuwgNTo_11integrations_34test_config_parsing_all_tool_types
FN:222,_RNvCs4NrvKuwgNTo_11integrations_34test_resource_manager_uri_matching
FN:107,_RNvCs4NrvKuwgNTo_11integrations_35test_middleware_chain_with_recovery
FN:315,_RNvCs4NrvKuwgNTo_11integrations_38test_config_validation_duplicate_tools
FN:55,_RNvCs4NrvKuwgNTo_11integrations_38test_config_with_resources_and_prompts
FNDA:0,_RNCNCNCNCNvCs4NrvKuwgNTo_11integrations_23test_retry_with_timeout0000B9_
FNDA:0,_RNCNCNCNvCs4NrvKuwgNTo_11integrations_23test_retry_with_timeout000B7_
FNDA:0,_RNCNCNCNvCs4NrvKuwgNTo_11integrations_26test_full_middleware_stack000B7_
FNDA:0,_RNCNCNCNvCs4NrvKuwgNTo_11integrations_26test_full_middleware_stack0s_00B7_
FNDA:0,_RNCNCNCNvCs4NrvKuwgNTo_11integrations_32test_circuit_breaker_integration000B7_
FNDA:0,_RNCNCNCNvCs4NrvKuwgNTo_11integrations_32test_circuit_breaker_integration0s0_00B7_
FNDA:0,_RNCNCNCNvCs4NrvKuwgNTo_11integrations_32test_circuit_breaker_integration0s1_00B7_
FNDA:0,_RNCNCNCNvCs4NrvKuwgNTo_11integrations_32test_circuit_breaker_integration0s2_00B7_
FNDA:0,_RNCNCNCNvCs4NrvKuwgNTo_11integrations_32test_circuit_breaker_integration0s_00B7_
FNDA:0,_RNCNCNCNvCs4NrvKuwgNTo_11integrations_35test_middleware_chain_with_recovery000B7_
FNDA:0,_RNCNCNvCs4NrvKuwgNTo_11integrations_23test_retry_with_timeout00B5_
FNDA:0,_RNCNCNvCs4NrvKuwgNTo_11integrations_26test_full_middleware_stack00B5_
FNDA:0,_RNCNCNvCs4NrvKuwgNTo_11integrations_26test_full_middleware_stack0s_0B5_
FNDA:0,_RNCNCNvCs4NrvKuwgNTo_11integrations_32test_circuit_breaker_integration00B5_
FNDA:0,_RNCNCNvCs4NrvKuwgNTo_11integrations_32test_circuit_breaker_integration0s0_0B5_
FNDA:0,_RNCNCNvCs4NrvKuwgNTo_11integrations_32test_circuit_breaker_integration0s1_0B5_
FNDA:0,_RNCNCNvCs4NrvKuwgNTo_11integrations_32test_circuit_breaker_integration0s2_0B5_
FNDA:0,_RNCNCNvCs4NrvKuwgNTo_11integrations_32test_circuit_breaker_integration0s_0B5_
FNDA:0,_RNCNCNvCs4NrvKuwgNTo_11integrations_35test_middleware_chain_with_recovery00B5_
FNDA:0,_RNCNvCs4NrvKuwgNTo_11integrations_23test_retry_with_timeout0B3_
FNDA:0,_RNCNvCs4NrvKuwgNTo_11integrations_26test_full_middleware_stack0B3_
FNDA:0,_RNCNvCs4NrvKuwgNTo_11integrations_32test_circuit_breaker_integration0B3_
FNDA:0,_RNCNvCs4NrvKuwgNTo_11integrations_33test_error_tracker_classification0B3_
FNDA:0,_RNCNvCs4NrvKuwgNTo_11integrations_33test_prompt_manager_full_workflow0B3_
FNDA:0,_RNCNvCs4NrvKuwgNTo_11integrations_33test_state_management_persistence0B3_
FNDA:0,_RNCNvCs4NrvKuwgNTo_11integrations_34test_resource_manager_uri_matching0B3_
FNDA:0,_RNCNvCs4NrvKuwgNTo_11integrations_35test_middleware_chain_with_recovery0B3_
FNDA:0,_RNvCs4NrvKuwgNTo_11integrations_23test_retry_with_timeout
FNDA:0,_RNvCs4NrvKuwgNTo_11integrations_26test_full_middleware_stack
FNDA:0,_RNvCs4NrvKuwgNTo_11integrations_28test_forge_metadata_defaults
FNDA:0,_RNvCs4NrvKuwgNTo_11integrations_32test_circuit_breaker_integration
FNDA:0,_RNvCs4NrvKuwgNTo_11integrations_33test_error_tracker_classification
FNDA:0,_RNvCs4NrvKuwgNTo_11integrations_33test_prompt_manager_full_workflow
FNDA:0,_RNvCs4NrvKuwgNTo_11integrations_33test_state_management_persistence
FNDA:0,_RNvCs4NrvKuwgNTo_11integrations_34test_config_parsing_all_tool_types
FNDA:0,_RNvCs4NrvKuwgNTo_11integrations_34test_resource_manager_uri_matching
FNDA:0,_RNvCs4NrvKuwgNTo_11integrations_35test_middleware_chain_with_recovery
FNDA:0,_RNvCs4NrvKuwgNTo_11integrations_38test_config_validation_duplicate_tools
FNDA:0,_RNvCs4NrvKuwgNTo_11integrations_38test_config_with_resources_and_prompts
FNF:39
FNH:0
DA:13,0
DA:14,0
DA:15,0
DA:16,0
DA:17,0
DA:18,0
DA:19,0
DA:20,0
DA:21,0
DA:22,0
DA:23,0
DA:24,0
DA:25,0
DA:26,0
DA:27,0
DA:28,0
DA:29,0
DA:30,0
DA:31,0
DA:32,0
DA:33,0
DA:34,0
DA:35,0
DA:36,0
DA:37,0
DA:38,0
DA:39,0
DA:40,0
DA:41,0
DA:42,0
DA:44,0
DA:45,0
DA:46,0
DA:49,0
DA:50,0
DA:51,0
DA:52,0
DA:55,0
DA:56,0
DA:57,0
DA:58,0
DA:59,0
DA:60,0
DA:61,0
DA:62,0
DA:63,0
DA:64,0
DA:65,0
DA:66,0
DA:67,0
DA:68,0
DA:69,0
DA:70,0
DA:71,0
DA:72,0
DA:73,0
DA:74,0
DA:75,0
DA:76,0
DA:77,0
DA:78,0
DA:79,0
DA:80,0
DA:82,0
DA:83,0
DA:84,0
DA:85,0
DA:86,0
DA:89,0
DA:90,0
DA:93,0
DA:94,0
DA:95,0
DA:98,0
DA:99,0
DA:102,0
DA:103,0
DA:104,0
DA:107,0
DA:108,0
DA:110,0
DA:111,0
DA:112,0
DA:113,0
DA:114,0
DA:115,0
DA:117,0
DA:118,0
DA:121,0
DA:122,0
DA:123,0
DA:124,0
DA:125,0
DA:126,0
DA:128,0
DA:129,0
DA:130,0
DA:133,0
DA:134,0
DA:135,0
DA:136,0
DA:138,0
DA:139,0
DA:141,0
DA:142,0
DA:143,0
DA:144,0
DA:145,0
DA:146,0
DA:147,0
DA:148,0
DA:149,0
DA:150,0
DA:152,0
DA:154,0
DA:155,0
DA:156,0
DA:158,0
DA:159,0
DA:160,0
DA:161,0
DA:164,0
DA:165,0
DA:166,0
DA:167,0
DA:168,0
DA:169,0
DA:171,0
DA:174,0
DA:175,0
DA:176,0
DA:177,0
DA:178,0
DA:179,0
DA:183,0
DA:184,0
DA:187,0
DA:190,0
DA:191,0
DA:194,0
DA:195,0
DA:196,0
DA:199,0
DA:200,0
DA:203,0
DA:204,0
DA:205,0
DA:206,0
DA:207,0
DA:208,0
DA:210,0
DA:213,0
DA:214,0
DA:215,0
DA:217,0
DA:218,0
DA:219,0
DA:222,0
DA:226,0
DA:228,0
DA:229,0
DA:230,0
DA:231,0
DA:232,0
DA:233,0
DA:234,0
DA:235,0
DA:239,0
DA:240,0
DA:243,0
DA:244,0
DA:247,0
DA:248,0
DA:249,0
DA:250,0
DA:251,0
DA:252,0
DA:253,0
DA:254,0
DA:255,0
DA:257,0
DA:259,0
DA:260,0
DA:261,0
DA:262,0
DA:263,0
DA:266,0
DA:267,0
DA:268,0
DA:269,0
DA:270,0
DA:271,0
DA:273,0
DA:274,0
DA:275,0
DA:278,0
DA:281,0
DA:284,0
DA:285,0
DA:286,0
DA:289,0
DA:292,0
DA:295,0
DA:296,0
DA:297,0
DA:298,0
DA:299,0
DA:301,0
DA:302,0
DA:305,0
DA:306,0
DA:307,0
DA:308,0
DA:309,0
DA:311,0
DA:312,0
DA:315,0
DA:318,0
DA:319,0
DA:320,0
DA:321,0
DA:322,0
DA:323,0
DA:324,0
DA:325,0
DA:326,0
DA:327,0
DA:328,0
DA:329,0
DA:330,0
DA:331,0
DA:332,0
DA:333,0
DA:334,0
DA:335,0
DA:337,0
DA:338,0
DA:340,0
DA:341,0
DA:342,0
BRF:0
BRH:0
LF:274
LH:0
end_of_record
SF:/home/noah/src/pforge/crates/pforge-runtime/src/handler.rs
FN:16,_RNvYNtNtNtCsbgyBtKT5UPh_14pforge_runtime8handlers4http11HttpHandlerNtNtB8_7handler7Handler12input_schemaCsjNOQr3x479x_6pforge
FN:21,_RNvYNtNtNtCsbgyBtKT5UPh_14pforge_runtime8handlers4http11HttpHandlerNtNtB8_7handler7Handler13output_schemaCsjNOQr3x479x_6pforge
FN:16,_RNvYNtNtNtCsbgyBtKT5UPh_14pforge_runtime8handlers3cli10CliHandlerNtNtB8_7handler7Handler12input_schemaCsjNOQr3x479x_6pforge
FN:21,_RNvYNtNtNtCsbgyBtKT5UPh_14pforge_runtime8handlers3cli10CliHandlerNtNtB8_7handler7Handler13output_schemaCsjNOQr3x479x_6pforge
FN:16,_RNvYpNtNtCs5tBpiHiFbgs_14pforge_runtime7handler7Handler12input_schemaB7_
FN:21,_RNvYpNtNtCs5tBpiHiFbgs_14pforge_runtime7handler7Handler13output_schemaB7_
FNDA:0,_RNvYNtNtNtCsbgyBtKT5UPh_14pforge_runtime8handlers4http11HttpHandlerNtNtB8_7handler7Handler12input_schemaCsjNOQr3x479x_6pforge
FNDA:0,_RNvYNtNtNtCsbgyBtKT5UPh_14pforge_runtime8handlers4http11HttpHandlerNtNtB8_7handler7Handler13output_schemaCsjNOQr3x479x_6pforge
FNDA:0,_RNvYNtNtNtCsbgyBtKT5UPh_14pforge_runtime8handlers3cli10CliHandlerNtNtB8_7handler7Handler12input_schemaCsjNOQr3x479x_6pforge
FNDA:0,_RNvYNtNtNtCsbgyBtKT5UPh_14pforge_runtime8handlers3cli10CliHandlerNtNtB8_7handler7Handler13output_schemaCsjNOQr3x479x_6pforge
FNDA:0,_RNvYpNtNtCs5tBpiHiFbgs_14pforge_runtime7handler7Handler12input_schemaB7_
FNDA:0,_RNvYpNtNtCs5tBpiHiFbgs_14pforge_runtime7handler7Handler13output_schemaB7_
FNF:2
FNH:0
DA:16,0
DA:17,0
DA:18,0
DA:21,0
DA:22,0
DA:23,0
BRF:0
BRH:0
LF:6
LH:0
end_of_record
SF:/home/noah/src/pforge/crates/pforge-runtime/src/handlers/cli.rs
FN:81,_RNCNCNCNvMNtNtCsbgyBtKT5UPh_14pforge_runtime8handlers3cliNtB8_10CliHandler7execute000Bc_
FN:80,_RNCNCNvMNtNtCsbgyBtKT5UPh_14pforge_runtime8handlers3cliNtB6_10CliHandler7execute00Ba_
FN:53,_RNCNvMNtNtCsbgyBtKT5UPh_14pforge_runtime8handlers3cliNtB4_10CliHandler7execute0B8_
FN:35,_RNvMNtNtCsbgyBtKT5UPh_14pforge_runtime8handlers3cliNtB2_10CliHandler3new
FN:53,_RNvMNtNtCsbgyBtKT5UPh_14pforge_runtime8handlers3cliNtB2_10CliHandler7execute
FN:81,_RNCNCNCNvMNtNtCs5tBpiHiFbgs_14pforge_runtime8handlers3cliNtB8_10CliHandler7execute000Bc_
FN:80,_RNCNCNvMNtNtCs5tBpiHiFbgs_14pforge_runtime8handlers3cliNtB6_10CliHandler7execute00Ba_
FN:53,_RNCNvMNtNtCs5tBpiHiFbgs_14pforge_runtime8handlers3cliNtB4_10CliHandler7execute0B8_
FN:35,_RNvMNtNtCs5tBpiHiFbgs_14pforge_runtime8handlers3cliNtB2_10CliHandler3new
FN:53,_RNvMNtNtCs5tBpiHiFbgs_14pforge_runtime8handlers3cliNtB2_10CliHandler7execute
FNDA:0,_RNCNCNCNvMNtNtCsbgyBtKT5UPh_14pforge_runtime8handlers3cliNtB8_10CliHandler7execute000Bc_
FNDA:0,_RNCNCNvMNtNtCsbgyBtKT5UPh_14pforge_runtime8handlers3cliNtB6_10CliHandler7execute00Ba_
FNDA:0,_RNCNvMNtNtCsbgyBtKT5UPh_14pforge_runtime8handlers3cliNtB4_10CliHandler7execute0B8_
FNDA:0,_RNvMNtNtCsbgyBtKT5UPh_14pforge_runtime8handlers3cliNtB2_10CliHandler3new
FNDA:0,_RNvMNtNtCsbgyBtKT5UPh_14pforge_runtime8handlers3cliNtB2_10CliHandler7execute
FNDA:0,_RNCNCNCNvMNtNtCs5tBpiHiFbgs_14pforge_runtime8handlers3cliNtB8_10CliHandler7execute000Bc_
FNDA:0,_RNCNCNvMNtNtCs5tBpiHiFbgs_14pforge_runtime8handlers3cliNtB6_10CliHandler7execute00Ba_
FNDA:0,_RNCNvMNtNtCs5tBpiHiFbgs_14pforge_runtime8handlers3cliNtB4_10CliHandler7execute0B8_
FNDA:0,_RNvMNtNtCs5tBpiHiFbgs_14pforge_runtime8handlers3cliNtB2_10CliHandler3new
FNDA:0,_RNvMNtNtCs5tBpiHiFbgs_14pforge_runtime8handlers3cliNtB2_10CliHandler7execute
FNF:5
FNH:0
DA:35,0
DA:36,0
DA:37,0
DA:38,0
DA:39,0
DA:40,0
DA:41,0
DA:42,0
DA:43,0
DA:44,0
DA:45,0
DA:46,0
DA:47,0
DA:48,0
DA:49,0
DA:50,0
DA:51,0
DA:53,0
DA:54,0
DA:57,0
DA:60,0
DA:63,0
DA:64,0
DA:65,0
DA:68,0
DA:69,0
DA:70,0
DA:71,0
DA:72,0
DA:73,0
DA:76,0
DA:77,0
DA:80,0
DA:81,0
DA:82,0
DA:83,0
DA:85,0
DA:86,0
DA:87,0
DA:88,0
DA:89,0
DA:90,0
DA:92,0
DA:93,0
DA:94,0
DA:95,0
DA:97,0
DA:99,0
BRF:0
BRH:0
LF:52
LH:0
end_of_record
SF:/home/noah/src/pforge/crates/pforge-runtime/src/handlers/http.rs
FN:104,_RNCNCNvMNtNtCsbgyBtKT5UPh_14pforge_runtime8handlers4httpNtB6_11HttpHandler7execute00Ba_
FN:63,_RNCNvMNtNtCsbgyBtKT5UPh_14pforge_runtime8handlers4httpNtB4_11HttpHandler7execute0B8_
FN:48,_RNvMNtNtCsbgyBtKT5UPh_14pforge_runtime8handlers4httpNtB2_11HttpHandler3new
FN:63,_RNvMNtNtCsbgyBtKT5UPh_14pforge_runtime8handlers4httpNtB2_11HttpHandler7execute
FN:104,_RNCNCNvMNtNtCs5tBpiHiFbgs_14pforge_runtime8handlers4httpNtB6_11HttpHandler7execute00Ba_
FN:63,_RNCNvMNtNtCs5tBpiHiFbgs_14pforge_runtime8handlers4httpNtB4_11HttpHandler7execute0B8_
FN:48,_RNvMNtNtCs5tBpiHiFbgs_14pforge_runtime8handlers4httpNtB2_11HttpHandler3new
FN:63,_RNvMNtNtCs5tBpiHiFbgs_14pforge_runtime8handlers4httpNtB2_11HttpHandler7execute
FNDA:0,_RNCNCNvMNtNtCsbgyBtKT5UPh_14pforge_runtime8handlers4httpNtB6_11HttpHandler7execute00Ba_
FNDA:0,_RNCNvMNtNtCsbgyBtKT5UPh_14pforge_runtime8handlers4httpNtB4_11HttpHandler7execute0B8_
FNDA:0,_RNvMNtNtCsbgyBtKT5UPh_14pforge_runtime8handlers4httpNtB2_11HttpHandler3new
FNDA:0,_RNvMNtNtCsbgyBtKT5UPh_14pforge_runtime8handlers4httpNtB2_11HttpHandler7execute
FNDA:0,_RNCNCNvMNtNtCs5tBpiHiFbgs_14pforge_runtime8handlers4httpNtB6_11HttpHandler7execute00Ba_
FNDA:0,_RNCNvMNtNtCs5tBpiHiFbgs_14pforge_runtime8handlers4httpNtB4_11HttpHandler7execute0B8_
FNDA:0,_RNvMNtNtCs5tBpiHiFbgs_14pforge_runtime8handlers4httpNtB2_11HttpHandler3new
FNDA:0,_RNvMNtNtCs5tBpiHiFbgs_14pforge_runtime8handlers4httpNtB2_11HttpHandler7execute
FNF:4
FNH:0
DA:48,0
DA:49,0
DA:50,0
DA:51,0
DA:52,0
DA:53,0
DA:54,0
DA:55,0
DA:56,0
DA:57,0
DA:58,0
DA:59,0
DA:60,0
DA:61,0
DA:63,0
DA:64,0
DA:65,0
DA:66,0
DA:67,0
DA:68,0
DA:69,0
DA:72,0
DA:75,0
DA:76,0
DA:77,0
DA:80,0
DA:81,0
DA:82,0
DA:83,0
DA:84,0
DA:86,0
DA:88,0
DA:91,0
DA:92,0
DA:93,0
DA:96,0
DA:97,0
DA:98,0
DA:101,0
DA:102,0
DA:103,0
DA:104,0
DA:106,0
DA:109,0
DA:110,0
DA:111,0
DA:112,0
DA:113,0
DA:117,0
DA:118,0
DA:119,0
DA:120,0
DA:122,0
DA:123,0
DA:124,0
DA:125,0
DA:126,0
DA:127,0
BRF:0
BRH:0
LF:60
LH:0
end_of_record
SF:/home/noah/src/pforge/crates/pforge-runtime/src/handlers/pipeline.rs
FN:154,_RNCNvMNtNtCsbgyBtKT5UPh_14pforge_runtime8handlers8pipelineNtB4_15PipelineHandler21interpolate_variables0B8_
FN:117,_RNvMNtNtCsbgyBtKT5UPh_14pforge_runtime8handlers8pipelineNtB2_15PipelineHandler18evaluate_condition
FN:127,_RNvMNtNtCsbgyBtKT5UPh_14pforge_runtime8handlers8pipelineNtB2_15PipelineHandler21interpolate_variables
FN:46,_RNvMNtNtCsbgyBtKT5UPh_14pforge_runtime8handlers8pipelineNtB2_15PipelineHandler3new
FN:50,_RNvMNtNtCsbgyBtKT5UPh_14pforge_runtime8handlers8pipelineNtB2_15PipelineHandler7execute
FN:154,_RNCNvMNtNtCs5tBpiHiFbgs_14pforge_runtime8handlers8pipelineNtB4_15PipelineHandler21interpolate_variables0B8_
FN:54,_RNCNvMNtNtCs5tBpiHiFbgs_14pforge_runtime8handlers8pipelineNtB4_15PipelineHandler7execute0B8_
FN:117,_RNvMNtNtCs5tBpiHiFbgs_14pforge_runtime8handlers8pipelineNtB2_15PipelineHandler18evaluate_condition
FN:127,_RNvMNtNtCs5tBpiHiFbgs_14pforge_runtime8handlers8pipelineNtB2_15PipelineHandler21interpolate_variables
FN:46,_RNvMNtNtCs5tBpiHiFbgs_14pforge_runtime8handlers8pipelineNtB2_15PipelineHandler3new
FN:50,_RNvMNtNtCs5tBpiHiFbgs_14pforge_runtime8handlers8pipelineNtB2_15PipelineHandler7execute
FNDA:0,_RNCNvMNtNtCsbgyBtKT5UPh_14pforge_runtime8handlers8pipelineNtB4_15PipelineHandler21interpolate_variables0B8_
FNDA:0,_RNvMNtNtCsbgyBtKT5UPh_14pforge_runtime8handlers8pipelineNtB2_15PipelineHandler18evaluate_condition
FNDA:0,_RNvMNtNtCsbgyBtKT5UPh_14pforge_runtime8handlers8pipelineNtB2_15PipelineHandler21interpolate_variables
FNDA:0,_RNvMNtNtCsbgyBtKT5UPh_14pforge_runtime8handlers8pipelineNtB2_15PipelineHandler3new
FNDA:0,_RNvMNtNtCsbgyBtKT5UPh_14pforge_runtime8handlers8pipelineNtB2_15PipelineHandler7execute
FNDA:0,_RNCNvMNtNtCs5tBpiHiFbgs_14pforge_runtime8handlers8pipelineNtB4_15PipelineHandler21interpolate_variables0B8_
FNDA:0,_RNCNvMNtNtCs5tBpiHiFbgs_14pforge_runtime8handlers8pipelineNtB4_15PipelineHandler7execute0B8_
FNDA:0,_RNvMNtNtCs5tBpiHiFbgs_14pforge_runtime8handlers8pipelineNtB2_15PipelineHandler18evaluate_condition
FNDA:0,_RNvMNtNtCs5tBpiHiFbgs_14pforge_runtime8handlers8pipelineNtB2_15PipelineHandler21interpolate_variables
FNDA:0,_RNvMNtNtCs5tBpiHiFbgs_14pforge_runtime8handlers8pipelineNtB2_15PipelineHandler3new
FNDA:0,_RNvMNtNtCs5tBpiHiFbgs_14pforge_runtime8handlers8pipelineNtB2_15PipelineHandler7execute
FNF:6
FNH:0
DA:46,0
DA:47,0
DA:48,0
DA:50,0
DA:51,0
DA:52,0
DA:53,0
DA:54,0
DA:55,0
DA:56,0
DA:58,0
DA:60,0
DA:61,0
DA:62,0
DA:63,0
DA:64,0
DA:67,0
DA:68,0
DA:70,0
DA:74,0
DA:75,0
DA:76,0
DA:78,0
DA:79,0
DA:82,0
DA:83,0
DA:84,0
DA:86,0
DA:87,0
DA:88,0
DA:89,0
DA:90,0
DA:91,0
DA:93,0
DA:94,0
DA:95,0
DA:96,0
DA:97,0
DA:98,0
DA:99,0
DA:102,0
DA:103,0
DA:104,0
DA:105,0
DA:107,0
DA:111,0
DA:114,0
DA:115,0
DA:117,0
DA:120,0
DA:121,0
DA:123,0
DA:125,0
DA:127,0
DA:128,0
DA:129,0
DA:130,0
DA:131,0
DA:132,0
DA:133,0
DA:135,0
DA:136,0
DA:137,0
DA:138,0
DA:139,0
DA:140,0
DA:142,0
DA:144,0
DA:145,0
DA:146,0
DA:147,0
DA:148,0
DA:149,0
DA:151,0
DA:152,0
DA:153,0
DA:154,0
DA:155,0
DA:156,0
DA:158,0
DA:160,0
BRF:0
BRH:0
LF:83
LH:0
end_of_record
SF:/home/noah/src/pforge/crates/pforge-runtime/src/handlers/wrappers.rs
FN:14,_RNvXNtNtCsbgyBtKT5UPh_14pforge_runtime8handlers8wrappersNtNtB4_3cli10CliHandlerNtNtB6_7handler7Handler6handle
FN:26,_RNvXs_NtNtCsbgyBtKT5UPh_14pforge_runtime8handlers8wrappersNtNtB6_4http11HttpHandlerNtNtB8_7handler7Handler6handle
FN:14,_RNvXNtNtCs5tBpiHiFbgs_14pforge_runtime8handlers8wrappersNtNtB4_3cli10CliHandlerNtNtB6_7handler7Handler6handle
FN:26,_RNvXs_NtNtCs5tBpiHiFbgs_14pforge_runtime8handlers8wrappersNtNtB6_4http11HttpHandlerNtNtB8_7handler7Handler6handle
FNDA:0,_RNvXNtNtCsbgyBtKT5UPh_14pforge_runtime8handlers8wrappersNtNtB4_3cli10CliHandlerNtNtB6_7handler7Handler6handle
FNDA:0,_RNvXs_NtNtCsbgyBtKT5UPh_14pforge_runtime8handlers8wrappersNtNtB6_4http11HttpHandlerNtNtB8_7handler7Handler6handle
FNDA:0,_RNvXNtNtCs5tBpiHiFbgs_14pforge_runtime8handlers8wrappersNtNtB4_3cli10CliHandlerNtNtB6_7handler7Handler6handle
FNDA:0,_RNvXs_NtNtCs5tBpiHiFbgs_14pforge_runtime8handlers8wrappersNtNtB6_4http11HttpHandlerNtNtB8_7handler7Handler6handle
FNF:2
FNH:0
DA:14,0
DA:16,0
DA:26,0
DA:28,0
BRF:0
BRH:0
LF:4
LH:0
end_of_record
SF:/home/noah/src/pforge/crates/pforge-runtime/src/middleware.rs
FN:46,_RINvMNtCsbgyBtKT5UPh_14pforge_runtime10middlewareNtB3_15MiddlewareChain7executeNCNCNvCs4NrvKuwgNTo_11integrations_26test_full_middleware_stack00NCNCB1h_00EB1l_
FN:46,_RINvMNtCsbgyBtKT5UPh_14pforge_runtime10middlewareNtB3_15MiddlewareChain7executeNCNCNvCs4NrvKuwgNTo_11integrations_26test_full_middleware_stack0s_0NCNCB1h_s_00EB1l_
FN:46,_RINvMNtCsbgyBtKT5UPh_14pforge_runtime10middlewareNtB3_15MiddlewareChain7executeNCNCNvCs4NrvKuwgNTo_11integrations_35test_middleware_chain_with_recovery00NCNCB1h_00EB1l_
FN:97,_RINvMs0_NtCsbgyBtKT5UPh_14pforge_runtime10middlewareNtB6_17LoggingMiddleware3newReECs4NrvKuwgNTo_11integration
FN:54,_RNCINvMNtCsbgyBtKT5UPh_14pforge_runtime10middlewareNtB5_15MiddlewareChain7executeNCNCNvCs4NrvKuwgNTo_11integrations_26test_full_middleware_stack00NCNCB1j_00E0B1n_
FN:54,_RNCINvMNtCsbgyBtKT5UPh_14pforge_runtime10middlewareNtB5_15MiddlewareChain7executeNCNCNvCs4NrvKuwgNTo_11integrations_26test_full_middleware_stack0s_0NCNCB1j_s_00E0B1n_
FN:54,_RNCINvMNtCsbgyBtKT5UPh_14pforge_runtime10middlewareNtB5_15MiddlewareChain7executeNCNCNvCs4NrvKuwgNTo_11integrations_35test_middleware_chain_with_recovery00NCNCB1j_00E0B1n_
FN:16,_RNvYNtNtCsbgyBtKT5UPh_14pforge_runtime10middleware20ValidationMiddlewareNtB4_10Middleware5afterCs4NrvKuwgNTo_11integration
FN:22,_RNvYNtNtCsbgyBtKT5UPh_14pforge_runtime10middleware20ValidationMiddlewareNtB4_10Middleware8on_errorCs4NrvKuwgNTo_11integration
FN:41,_RNvMNtCsbgyBtKT5UPh_14pforge_runtime10middlewareNtB2_15MiddlewareChain3add
FN:34,_RNvMNtCsbgyBtKT5UPh_14pforge_runtime10middlewareNtB2_15MiddlewareChain3new
FN:126,_RNvMs1_NtCsbgyBtKT5UPh_14pforge_runtime10middlewareNtB5_20ValidationMiddleware3new
FN:109,_RNvXs3_NtCsbgyBtKT5UPh_14pforge_runtime10middlewareNtB5_17LoggingMiddlewareNtB5_10Middleware5after
FN:104,_RNvXs3_NtCsbgyBtKT5UPh_14pforge_runtime10middlewareNtB5_17LoggingMiddlewareNtB5_10Middleware6before
FN:114,_RNvXs3_NtCsbgyBtKT5UPh_14pforge_runtime10middlewareNtB5_17LoggingMiddlewareNtB5_10Middleware8on_error
FN:133,_RNvXs4_NtCsbgyBtKT5UPh_14pforge_runtime10middlewareNtB5_20ValidationMiddlewareNtB5_10Middleware6before
FN:86,_RNvXs_NtCsbgyBtKT5UPh_14pforge_runtime10middlewareNtB4_15MiddlewareChainNtNtCs5GmCzIpY9Qj_4core7default7Default7default
FN:41,_RNvMNtCs5tBpiHiFbgs_14pforge_runtime10middlewareNtB2_15MiddlewareChain3add
FN:34,_RNvMNtCs5tBpiHiFbgs_14pforge_runtime10middlewareNtB2_15MiddlewareChain3new
FN:126,_RNvMs1_NtCs5tBpiHiFbgs_14pforge_runtime10middlewareNtB5_20ValidationMiddleware3new
FN:133,_RNvXs4_NtCs5tBpiHiFbgs_14pforge_runtime10middlewareNtB5_20ValidationMiddlewareNtB5_10Middleware6before
FN:255,_RNvNtNtCs5tBpiHiFbgs_14pforge_runtime10middleware5testss_25test_transform_middleware
FN:239,_RNvNtNtCs5tBpiHiFbgs_14pforge_runtime10middleware5testss_26test_validation_middleware
FN:283,_RNvNtNtCs5tBpiHiFbgs_14pforge_runtime10middleware5testss_30test_error_handling_middleware
FN:322,_RNvNtNtCs5tBpiHiFbgs_14pforge_runtime10middleware5testss_36test_multiple_middleware_composition
FN:216,_RNvNtNtCs5tBpiHiFbgs_14pforge_runtime10middleware5testss_37test_middleware_chain_execution_order
FN:288,_RNvXNCNvNtNtCs5tBpiHiFbgs_14pforge_runtime10middleware5testss_30test_error_handling_middleware0NtB2_18RecoveryMiddlewareNtB8_10Middleware8on_error
FN:204,_RNvXNtNtCs5tBpiHiFbgs_14pforge_runtime10middleware5testsNtB2_14TestMiddlewareNtB4_10Middleware5after
FN:194,_RNvXNtNtCs5tBpiHiFbgs_14pforge_runtime10middleware5testsNtB2_14TestMiddlewareNtB4_10Middleware6before
FN:97,_RINvMs0_NtCs5tBpiHiFbgs_14pforge_runtime10middlewareNtB6_17LoggingMiddleware3newpEB8_
FN:109,_RNvXs3_NtCs5tBpiHiFbgs_14pforge_runtime10middlewareNtB5_17LoggingMiddlewareNtB5_10Middleware5after
FN:104,_RNvXs3_NtCs5tBpiHiFbgs_14pforge_runtime10middlewareNtB5_17LoggingMiddlewareNtB5_10Middleware6before
FN:114,_RNvXs3_NtCs5tBpiHiFbgs_14pforge_runtime10middlewareNtB5_17LoggingMiddlewareNtB5_10Middleware8on_error
FN:86,_RNvXs_NtCs5tBpiHiFbgs_14pforge_runtime10middlewareNtB4_15MiddlewareChainNtNtCs5GmCzIpY9Qj_4core7default7Default7default
FN:46,_RINvMNtCs5tBpiHiFbgs_14pforge_runtime10middlewareNtB3_15MiddlewareChain7executeNCNCNvNtB3_5testss_30test_error_handling_middleware00NCNCB1h_00EB5_
FN:46,_RINvMNtCs5tBpiHiFbgs_14pforge_runtime10middlewareNtB3_15MiddlewareChain7executeNCNCNvNtB3_5testss_30test_error_handling_middleware0s_0NCNCB1h_s_00EB5_
FN:46,_RINvMNtCs5tBpiHiFbgs_14pforge_runtime10middlewareNtB3_15MiddlewareChain7executeNCNCNvNtB3_5testss_36test_multiple_middleware_composition0s0_0NCNCB1h_s0_00EB5_
FN:46,_RINvMNtCs5tBpiHiFbgs_14pforge_runtime10middlewareNtB3_15MiddlewareChain7executeNCNCNvNtB3_5testss_37test_middleware_chain_execution_order00NCNCB1h_00EB5_
FN:54,_RNCINvMNtCs5tBpiHiFbgs_14pforge_runtime10middlewareNtB5_15MiddlewareChain7executeNCNCNvNtB5_5testss_30test_error_handling_middleware00NCNCB1j_00E0B7_
FN:54,_RNCINvMNtCs5tBpiHiFbgs_14pforge_runtime10middlewareNtB5_15MiddlewareChain7executeNCNCNvNtB5_5testss_30test_error_handling_middleware0s_0NCNCB1j_s_00E0B7_
FN:54,_RNCINvMNtCs5tBpiHiFbgs_14pforge_runtime10middlewareNtB5_15MiddlewareChain7executeNCNCNvNtB5_5testss_36test_multiple_middleware_composition0s0_0NCNCB1j_s0_00E0B7_
FN:54,_RNCINvMNtCs5tBpiHiFbgs_14pforge_runtime10middlewareNtB5_15MiddlewareChain7executeNCNCNvNtB5_5testss_37test_middleware_chain_execution_order00NCNCB1j_00E0B7_
FN:163,_RNvMs2_NtCs5tBpiHiFbgs_14pforge_runtime10middlewareINtB5_19TransformMiddlewareNCNCNvNtB5_5testss_25test_transform_middleware00NCB1g_s_0E3newB7_
FN:163,_RNvMs2_NtCs5tBpiHiFbgs_14pforge_runtime10middlewareINtB5_19TransformMiddlewareNCNCNvNtB5_5testss_36test_multiple_middleware_composition00NCB1g_s_0E3newB7_
FN:178,_RNvXs5_NtCs5tBpiHiFbgs_14pforge_runtime10middlewareINtB5_19TransformMiddlewareNCNCNvNtB5_5testss_25test_transform_middleware00NCB1g_s_0ENtB5_10Middleware5afterB7_
FN:174,_RNvXs5_NtCs5tBpiHiFbgs_14pforge_runtime10middlewareINtB5_19TransformMiddlewareNCNCNvNtB5_5testss_25test_transform_middleware00NCB1g_s_0ENtB5_10Middleware6beforeB7_
FN:178,_RNvXs5_NtCs5tBpiHiFbgs_14pforge_runtime10middlewareINtB5_19TransformMiddlewareNCNCNvNtB5_5testss_36test_multiple_middleware_composition00NCB1g_s_0ENtB5_10Middleware5afterB7_
FN:174,_RNvXs5_NtCs5tBpiHiFbgs_14pforge_runtime10middlewareINtB5_19TransformMiddlewareNCNCNvNtB5_5testss_36test_multiple_middleware_composition00NCB1g_s_0ENtB5_10Middleware6beforeB7_
FN:22,_RNvYINtNtCs5tBpiHiFbgs_14pforge_runtime10middleware19TransformMiddlewareNCNCNvNtB5_5testss_36test_multiple_middleware_composition00NCB1a_s_0ENtB5_10Middleware8on_errorB7_
FN:16,_RNvYNtNtCs5tBpiHiFbgs_14pforge_runtime10middleware20ValidationMiddlewareNtB4_10Middleware5afterB6_
FN:22,_RNvYNtNtCs5tBpiHiFbgs_14pforge_runtime10middleware20ValidationMiddlewareNtB4_10Middleware8on_errorB6_
FN:303,_RNCNCNCNvNtNtCs5tBpiHiFbgs_14pforge_runtime10middleware5testss_30test_error_handling_middleware000Bb_
FN:313,_RNCNCNCNvNtNtCs5tBpiHiFbgs_14pforge_runtime10middleware5testss_30test_error_handling_middleware0s_00Bb_
FN:340,_RNCNCNCNvNtNtCs5tBpiHiFbgs_14pforge_runtime10middleware5testss_36test_multiple_middleware_composition0s0_00Bb_
FN:224,_RNCNCNCNvNtNtCs5tBpiHiFbgs_14pforge_runtime10middleware5testss_37test_middleware_chain_execution_order000Bb_
FN:257,_RNCNCNvNtNtCs5tBpiHiFbgs_14pforge_runtime10middleware5testss_25test_transform_middleware00B9_
FN:265,_RNCNCNvNtNtCs5tBpiHiFbgs_14pforge_runtime10middleware5testss_25test_transform_middleware0s_0B9_
FN:305,_RNCNCNvNtNtCs5tBpiHiFbgs_14pforge_runtime10middleware5testss_30test_error_handling_middleware00B9_
FN:315,_RNCNCNvNtNtCs5tBpiHiFbgs_14pforge_runtime10middleware5testss_30test_error_handling_middleware0s_0B9_
FN:327,_RNCNCNvNtNtCs5tBpiHiFbgs_14pforge_runtime10middleware5testss_36test_multiple_middleware_composition00B9_
FN:343,_RNCNCNvNtNtCs5tBpiHiFbgs_14pforge_runtime10middleware5testss_36test_multiple_middleware_composition0s0_0B9_
FN:335,_RNCNCNvNtNtCs5tBpiHiFbgs_14pforge_runtime10middleware5testss_36test_multiple_middleware_composition0s_0B9_
FN:229,_RNCNCNvNtNtCs5tBpiHiFbgs_14pforge_runtime10middleware5testss_37test_middleware_chain_execution_order00B9_
FN:255,_RNCNvNtNtCs5tBpiHiFbgs_14pforge_runtime10middleware5testss_25test_transform_middleware0B7_
FN:239,_RNCNvNtNtCs5tBpiHiFbgs_14pforge_runtime10middleware5testss_26test_validation_middleware0B7_
FN:283,_RNCNvNtNtCs5tBpiHiFbgs_14pforge_runtime10middleware5testss_30test_error_handling_middleware0B7_
FN:322,_RNCNvNtNtCs5tBpiHiFbgs_14pforge_runtime10middleware5testss_36test_multiple_middleware_composition0B7_
FN:216,_RNCNvNtNtCs5tBpiHiFbgs_14pforge_runtime10middleware5testss_37test_middleware_chain_execution_order0B7_
FN:16,_RNvYNtNCNvNtNtCs5tBpiHiFbgs_14pforge_runtime10middleware5testss_30test_error_handling_middleware018RecoveryMiddlewareNtBa_10Middleware5afterBc_
FN:10,_RNvYNtNCNvNtNtCs5tBpiHiFbgs_14pforge_runtime10middleware5testss_30test_error_handling_middleware018RecoveryMiddlewareNtBa_10Middleware6beforeBc_
FN:22,_RNvYNtNtNtCs5tBpiHiFbgs_14pforge_runtime10middleware5tests14TestMiddlewareNtB6_10Middleware8on_errorB8_
FNDA:0,_RINvMNtCsbgyBtKT5UPh_14pforge_runtime10middlewareNtB3_15MiddlewareChain7executeNCNCNvCs4NrvKuwgNTo_11integrations_26test_full_middleware_stack00NCNCB1h_00EB1l_
FNDA:0,_RINvMNtCsbgyBtKT5UPh_14pforge_runtime10middlewareNtB3_15MiddlewareChain7executeNCNCNvCs4NrvKuwgNTo_11integrations_26test_full_middleware_stack0s_0NCNCB1h_s_00EB1l_
FNDA:0,_RINvMNtCsbgyBtKT5UPh_14pforge_runtime10middlewareNtB3_15MiddlewareChain7executeNCNCNvCs4NrvKuwgNTo_11integrations_35test_middleware_chain_with_recovery00NCNCB1h_00EB1l_
FNDA:0,_RINvMs0_NtCsbgyBtKT5UPh_14pforge_runtime10middlewareNtB6_17LoggingMiddleware3newReECs4NrvKuwgNTo_11integration
FNDA:0,_RNCINvMNtCsbgyBtKT5UPh_14pforge_runtime10middlewareNtB5_15MiddlewareChain7executeNCNCNvCs4NrvKuwgNTo_11integrations_26test_full_middleware_stack00NCNCB1j_00E0B1n_
FNDA:0,_RNCINvMNtCsbgyBtKT5UPh_14pforge_runtime10middlewareNtB5_15MiddlewareChain7executeNCNCNvCs4NrvKuwgNTo_11integrations_26test_full_middleware_stack0s_0NCNCB1j_s_00E0B1n_
FNDA:0,_RNCINvMNtCsbgyBtKT5UPh_14pforge_runtime10middlewareNtB5_15MiddlewareChain7executeNCNCNvCs4NrvKuwgNTo_11integrations_35test_middleware_chain_with_recovery00NCNCB1j_00E0B1n_
FNDA:0,_RNvYNtNtCsbgyBtKT5UPh_14pforge_runtime10middleware20ValidationMiddlewareNtB4_10Middleware5afterCs4NrvKuwgNTo_11integration
FNDA:0,_RNvYNtNtCsbgyBtKT5UPh_14pforge_runtime10middleware20ValidationMiddlewareNtB4_10Middleware8on_errorCs4NrvKuwgNTo_11integration
FNDA:0,_RNvMNtCsbgyBtKT5UPh_14pforge_runtime10middlewareNtB2_15MiddlewareChain3add
FNDA:0,_RNvMNtCsbgyBtKT5UPh_14pforge_runtime10middlewareNtB2_15MiddlewareChain3new
FNDA:0,_RNvMs1_NtCsbgyBtKT5UPh_14pforge_runtime10middlewareNtB5_20ValidationMiddleware3new
FNDA:0,_RNvXs3_NtCsbgyBtKT5UPh_14pforge_runtime10middlewareNtB5_17LoggingMiddlewareNtB5_10Middleware5after
FNDA:0,_RNvXs3_NtCsbgyBtKT5UPh_14pforge_runtime10middlewareNtB5_17LoggingMiddlewareNtB5_10Middleware6before
FNDA:0,_RNvXs3_NtCsbgyBtKT5UPh_14pforge_runtime10middlewareNtB5_17LoggingMiddlewareNtB5_10Middleware8on_error
FNDA:0,_RNvXs4_NtCsbgyBtKT5UPh_14pforge_runtime10middlewareNtB5_20ValidationMiddlewareNtB5_10Middleware6before
FNDA:0,_RNvXs_NtCsbgyBtKT5UPh_14pforge_runtime10middlewareNtB4_15MiddlewareChainNtNtCs5GmCzIpY9Qj_4core7default7Default7default
FNDA:0,_RNvMNtCs5tBpiHiFbgs_14pforge_runtime10middlewareNtB2_15MiddlewareChain3add
FNDA:0,_RNvMNtCs5tBpiHiFbgs_14pforge_runtime10middlewareNtB2_15MiddlewareChain3new
FNDA:0,_RNvMs1_NtCs5tBpiHiFbgs_14pforge_runtime10middlewareNtB5_20ValidationMiddleware3new
FNDA:0,_RNvXs4_NtCs5tBpiHiFbgs_14pforge_runtime10middlewareNtB5_20ValidationMiddlewareNtB5_10Middleware6before
FNDA:0,_RNvNtNtCs5tBpiHiFbgs_14pforge_runtime10middleware5testss_25test_transform_middleware
FNDA:0,_RNvNtNtCs5tBpiHiFbgs_14pforge_runtime10middleware5testss_26test_validation_middleware
FNDA:0,_RNvNtNtCs5tBpiHiFbgs_14pforge_runtime10middleware5testss_30test_error_handling_middleware
FNDA:0,_RNvNtNtCs5tBpiHiFbgs_14pforge_runtime10middleware5testss_36test_multiple_middleware_composition
FNDA:0,_RNvNtNtCs5tBpiHiFbgs_14pforge_runtime10middleware5testss_37test_middleware_chain_execution_order
FNDA:0,_RNvXNCNvNtNtCs5tBpiHiFbgs_14pforge_runtime10middleware5testss_30test_error_handling_middleware0NtB2_18RecoveryMiddlewareNtB8_10Middleware8on_error
FNDA:0,_RNvXNtNtCs5tBpiHiFbgs_14pforge_runtime10middleware5testsNtB2_14TestMiddlewareNtB4_10Middleware5after
FNDA:0,_RNvXNtNtCs5tBpiHiFbgs_14pforge_runtime10middleware5testsNtB2_14TestMiddlewareNtB4_10Middleware6before
FNDA:0,_RINvMs0_NtCs5tBpiHiFbgs_14pforge_runtime10middlewareNtB6_17LoggingMiddleware3newpEB8_
FNDA:0,_RNvXs3_NtCs5tBpiHiFbgs_14pforge_runtime10middlewareNtB5_17LoggingMiddlewareNtB5_10Middleware5after
FNDA:0,_RNvXs3_NtCs5tBpiHiFbgs_14pforge_runtime10middlewareNtB5_17LoggingMiddlewareNtB5_10Middleware6before
FNDA:0,_RNvXs3_NtCs5tBpiHiFbgs_14pforge_runtime10middlewareNtB5_17LoggingMiddlewareNtB5_10Middleware8on_error
FNDA:0,_RNvXs_NtCs5tBpiHiFbgs_14pforge_runtime10middlewareNtB4_15MiddlewareChainNtNtCs5GmCzIpY9Qj_4core7default7Default7default
FNDA:0,_RINvMNtCs5tBpiHiFbgs_14pforge_runtime10middlewareNtB3_15MiddlewareChain7executeNCNCNvNtB3_5testss_30test_error_handling_middleware00NCNCB1h_00EB5_
FNDA:0,_RINvMNtCs5tBpiHiFbgs_14pforge_runtime10middlewareNtB3_15MiddlewareChain7executeNCNCNvNtB3_5testss_30test_error_handling_middleware0s_0NCNCB1h_s_00EB5_
FNDA:0,_RINvMNtCs5tBpiHiFbgs_14pforge_runtime10middlewareNtB3_15MiddlewareChain7executeNCNCNvNtB3_5testss_36test_multiple_middleware_composition0s0_0NCNCB1h_s0_00EB5_
FNDA:0,_RINvMNtCs5tBpiHiFbgs_14pforge_runtime10middlewareNtB3_15MiddlewareChain7executeNCNCNvNtB3_5testss_37test_middleware_chain_execution_order00NCNCB1h_00EB5_
FNDA:0,_RNCINvMNtCs5tBpiHiFbgs_14pforge_runtime10middlewareNtB5_15MiddlewareChain7executeNCNCNvNtB5_5testss_30test_error_handling_middleware00NCNCB1j_00E0B7_
FNDA:0,_RNCINvMNtCs5tBpiHiFbgs_14pforge_runtime10middlewareNtB5_15MiddlewareChain7executeNCNCNvNtB5_5testss_30test_error_handling_middleware0s_0NCNCB1j_s_00E0B7_
FNDA:0,_RNCINvMNtCs5tBpiHiFbgs_14pforge_runtime10middlewareNtB5_15MiddlewareChain7executeNCNCNvNtB5_5testss_36test_multiple_middleware_composition0s0_0NCNCB1j_s0_00E0B7_
FNDA:0,_RNCINvMNtCs5tBpiHiFbgs_14pforge_runtime10middlewareNtB5_15MiddlewareChain7executeNCNCNvNtB5_5testss_37test_middleware_chain_execution_order00NCNCB1j_00E0B7_
FNDA:0,_RNvMs2_NtCs5tBpiHiFbgs_14pforge_runtime10middlewareINtB5_19TransformMiddlewareNCNCNvNtB5_5testss_25test_transform_middleware00NCB1g_s_0E3newB7_
FNDA:0,_RNvMs2_NtCs5tBpiHiFbgs_14pforge_runtime10middlewareINtB5_19TransformMiddlewareNCNCNvNtB5_5testss_36test_multiple_middleware_composition00NCB1g_s_0E3newB7_
FNDA:0,_RNvXs5_NtCs5tBpiHiFbgs_14pforge_runtime10middlewareINtB5_19TransformMiddlewareNCNCNvNtB5_5testss_25test_transform_middleware00NCB1g_s_0ENtB5_10Middleware5afterB7_
FNDA:0,_RNvXs5_NtCs5tBpiHiFbgs_14pforge_runtime10middlewareINtB5_19TransformMiddlewareNCNCNvNtB5_5testss_25test_transform_middleware00NCB1g_s_0ENtB5_10Middleware6beforeB7_
FNDA:0,_RNvXs5_NtCs5tBpiHiFbgs_14pforge_runtime10middlewareINtB5_19TransformMiddlewareNCNCNvNtB5_5testss_36test_multiple_middleware_composition00NCB1g_s_0ENtB5_10Middleware5afterB7_
FNDA:0,_RNvXs5_NtCs5tBpiHiFbgs_14pforge_runtime10middlewareINtB5_19TransformMiddlewareNCNCNvNtB5_5testss_36test_multiple_middleware_composition00NCB1g_s_0ENtB5_10Middleware6beforeB7_
FNDA:0,_RNvYINtNtCs5tBpiHiFbgs_14pforge_runtime10middleware19TransformMiddlewareNCNCNvNtB5_5testss_36test_multiple_middleware_composition00NCB1a_s_0ENtB5_10Middleware8on_errorB7_
FNDA:0,_RNvYNtNtCs5tBpiHiFbgs_14pforge_runtime10middleware20ValidationMiddlewareNtB4_10Middleware5afterB6_
FNDA:0,_RNvYNtNtCs5tBpiHiFbgs_14pforge_runtime10middleware20ValidationMiddlewareNtB4_10Middleware8on_errorB6_
FNDA:0,_RNCNCNCNvNtNtCs5tBpiHiFbgs_14pforge_runtime10middleware5testss_30test_error_handling_middleware000Bb_
FNDA:0,_RNCNCNCNvNtNtCs5tBpiHiFbgs_14pforge_runtime10middleware5testss_30test_error_handling_middleware0s_00Bb_
FNDA:0,_RNCNCNCNvNtNtCs5tBpiHiFbgs_14pforge_runtime10middleware5testss_36test_multiple_middleware_composition0s0_00Bb_
FNDA:0,_RNCNCNCNvNtNtCs5tBpiHiFbgs_14pforge_runtime10middleware5testss_37test_middleware_chain_execution_order000Bb_
FNDA:0,_RNCNCNvNtNtCs5tBpiHiFbgs_14pforge_runtime10middleware5testss_25test_transform_middleware00B9_
FNDA:0,_RNCNCNvNtNtCs5tBpiHiFbgs_14pforge_runtime10middleware5testss_25test_transform_middleware0s_0B9_
FNDA:0,_RNCNCNvNtNtCs5tBpiHiFbgs_14pforge_runtime10middleware5testss_30test_error_handling_middleware00B9_
FNDA:0,_RNCNCNvNtNtCs5tBpiHiFbgs_14pforge_runtime10middleware5testss_30test_error_handling_middleware0s_0B9_
FNDA:0,_RNCNCNvNtNtCs5tBpiHiFbgs_14pforge_runtime10middleware5testss_36test_multiple_middleware_composition00B9_
FNDA:0,_RNCNCNvNtNtCs5tBpiHiFbgs_14pforge_runtime10middleware5testss_36test_multiple_middleware_composition0s0_0B9_
FNDA:0,_RNCNCNvNtNtCs5tBpiHiFbgs_14pforge_runtime10middleware5testss_36test_multiple_middleware_composition0s_0B9_
FNDA:0,_RNCNCNvNtNtCs5tBpiHiFbgs_14pforge_runtime10middleware5testss_37test_middleware_chain_execution_order00B9_
FNDA:0,_RNCNvNtNtCs5tBpiHiFbgs_14pforge_runtime10middleware5testss_25test_transform_middleware0B7_
FNDA:0,_RNCNvNtNtCs5tBpiHiFbgs_14pforge_runtime10middleware5testss_26test_validation_middleware0B7_
FNDA:0,_RNCNvNtNtCs5tBpiHiFbgs_14pforge_runtime10middleware5testss_30test_error_handling_middleware0B7_
FNDA:0,_RNCNvNtNtCs5tBpiHiFbgs_14pforge_runtime10middleware5testss_36test_multiple_middleware_composition0B7_
FNDA:0,_RNCNvNtNtCs5tBpiHiFbgs_14pforge_runtime10middleware5testss_37test_middleware_chain_execution_order0B7_
FNDA:0,_RNvYNtNCNvNtNtCs5tBpiHiFbgs_14pforge_runtime10middleware5testss_30test_error_handling_middleware018RecoveryMiddlewareNtBa_10Middleware5afterBc_
FNDA:0,_RNvYNtNCNvNtNtCs5tBpiHiFbgs_14pforge_runtime10middleware5testss_30test_error_handling_middleware018RecoveryMiddlewareNtBa_10Middleware6beforeBc_
FNDA:0,_RNvYNtNtNtCs5tBpiHiFbgs_14pforge_runtime10middleware5tests14TestMiddlewareNtB6_10Middleware8on_errorB8_
FNF:42
FNH:0
DA:10,0
DA:12,0
DA:16,0
DA:19,0
DA:22,0
DA:25,0
DA:34,0
DA:35,0
DA:36,0
DA:37,0
DA:38,0
DA:41,0
DA:42,0
DA:43,0
DA:46,0
DA:47,0
DA:48,0
DA:49,0
DA:50,0
DA:51,0
DA:52,0
DA:53,0
DA:54,0
DA:56,0
DA:57,0
DA:61,0
DA:64,0
DA:65,0
DA:66,0
DA:67,0
DA:69,0
DA:71,0
DA:72,0
DA:73,0
DA:74,0
DA:75,0
DA:76,0
DA:79,0
DA:82,0
DA:86,0
DA:87,0
DA:88,0
DA:97,0
DA:98,0
DA:99,0
DA:104,0
DA:107,0
DA:109,0
DA:112,0
DA:114,0
DA:117,0
DA:126,0
DA:127,0
DA:128,0
DA:133,0
DA:145,0
DA:163,0
DA:164,0
DA:165,0
DA:174,0
DA:176,0
DA:178,0
DA:180,0
DA:194,0
DA:202,0
DA:204,0
DA:212,0
DA:216,0
DA:217,0
DA:219,0
DA:220,0
DA:222,0
DA:223,0
DA:224,0
DA:226,0
DA:227,0
DA:228,0
DA:229,0
DA:230,0
DA:231,0
DA:234,0
DA:235,0
DA:236,0
DA:239,0
DA:240,0
DA:243,0
DA:244,0
DA:245,0
DA:248,0
DA:249,0
DA:250,0
DA:251,0
DA:252,0
DA:255,0
DA:256,0
DA:257,0
DA:258,0
DA:259,0
DA:260,0
DA:261,0
DA:262,0
DA:263,0
DA:264,0
DA:265,0
DA:266,0
DA:267,0
DA:268,0
DA:269,0
DA:270,0
DA:273,0
DA:274,0
DA:275,0
DA:277,0
DA:278,0
DA:279,0
DA:280,0
DA:283,0
DA:288,0
DA:295,0
DA:298,0
DA:299,0
DA:302,0
DA:303,0
DA:304,0
DA:305,0
DA:306,0
DA:308,0
DA:309,0
DA:312,0
DA:313,0
DA:314,0
DA:315,0
DA:316,0
DA:318,0
DA:319,0
DA:322,0
DA:323,0
DA:325,0
DA:326,0
DA:327,0
DA:328,0
DA:329,0
DA:330,0
DA:331,0
DA:332,0
DA:333,0
DA:334,0
DA:335,0
DA:338,0
DA:339,0
DA:340,0
DA:341,0
DA:342,0
DA:343,0
DA:344,0
DA:345,0
DA:347,0
DA:348,0
BRF:0
BRH:0
LF:176
LH:0
end_of_record
SF:/home/noah/src/pforge/crates/pforge-runtime/src/prompt.rs
FN:62,_RNCNvMNtCsbgyBtKT5UPh_14pforge_runtime6promptNtB4_13PromptManager10get_prompt0B6_
FN:110,_RNCNvMNtCsbgyBtKT5UPh_14pforge_runtime6promptNtB4_13PromptManager11interpolate0B6_
FN:122,_RNCNvMNtCsbgyBtKT5UPh_14pforge_runtime6promptNtB4_13PromptManager11interpolates_0B6_
FN:50,_RNCNvMNtCsbgyBtKT5UPh_14pforge_runtime6promptNtB4_13PromptManager6render0B6_
FN:60,_RNvMNtCsbgyBtKT5UPh_14pforge_runtime6promptNtB2_13PromptManager10get_prompt
FN:99,_RNvMNtCsbgyBtKT5UPh_14pforge_runtime6promptNtB2_13PromptManager11interpolate
FN:68,_RNvMNtCsbgyBtKT5UPh_14pforge_runtime6promptNtB2_13PromptManager12list_prompts
FN:73,_RNvMNtCsbgyBtKT5UPh_14pforge_runtime6promptNtB2_13PromptManager18validate_arguments
FN:18,_RNvMNtCsbgyBtKT5UPh_14pforge_runtime6promptNtB2_13PromptManager3new
FN:46,_RNvMNtCsbgyBtKT5UPh_14pforge_runtime6promptNtB2_13PromptManager6render
FN:25,_RNvMNtCsbgyBtKT5UPh_14pforge_runtime6promptNtB2_13PromptManager8register
FN:138,_RNvXs_NtCsbgyBtKT5UPh_14pforge_runtime6promptNtB4_13PromptManagerNtNtCs5GmCzIpY9Qj_4core7default7Default7default
FN:263,_RNvNtNtCs5tBpiHiFbgs_14pforge_runtime6prompt5testss_24test_get_prompt_metadata
FN:157,_RNvNtNtCs5tBpiHiFbgs_14pforge_runtime6prompt5testss_24test_prompt_registration
FN:189,_RNvNtNtCs5tBpiHiFbgs_14pforge_runtime6prompt5testss_25test_simple_interpolation
FN:241,_RNvNtNtCs5tBpiHiFbgs_14pforge_runtime6prompt5testss_27test_unresolved_placeholder
FN:293,_RNvNtNtCs5tBpiHiFbgs_14pforge_runtime6prompt5testss_32test_complex_value_interpolation
FN:210,_RNvNtNtCs5tBpiHiFbgs_14pforge_runtime6prompt5testss_33test_required_argument_validation
FN:172,_RNvNtNtCs5tBpiHiFbgs_14pforge_runtime6prompt5testss_34test_duplicate_prompt_registration
FN:138,_RNvXs_NtCs5tBpiHiFbgs_14pforge_runtime6promptNtB4_13PromptManagerNtNtCs5GmCzIpY9Qj_4core7default7Default7default
FN:62,_RNCNvMNtCs5tBpiHiFbgs_14pforge_runtime6promptNtB4_13PromptManager10get_prompt0B6_
FN:110,_RNCNvMNtCs5tBpiHiFbgs_14pforge_runtime6promptNtB4_13PromptManager11interpolate0B6_
FN:122,_RNCNvMNtCs5tBpiHiFbgs_14pforge_runtime6promptNtB4_13PromptManager11interpolates_0B6_
FN:50,_RNCNvMNtCs5tBpiHiFbgs_14pforge_runtime6promptNtB4_13PromptManager6render0B6_
FN:60,_RNvMNtCs5tBpiHiFbgs_14pforge_runtime6promptNtB2_13PromptManager10get_prompt
FN:99,_RNvMNtCs5tBpiHiFbgs_14pforge_runtime6promptNtB2_13PromptManager11interpolate
FN:68,_RNvMNtCs5tBpiHiFbgs_14pforge_runtime6promptNtB2_13PromptManager12list_prompts
FN:73,_RNvMNtCs5tBpiHiFbgs_14pforge_runtime6promptNtB2_13PromptManager18validate_arguments
FN:18,_RNvMNtCs5tBpiHiFbgs_14pforge_runtime6promptNtB2_13PromptManager3new
FN:46,_RNvMNtCs5tBpiHiFbgs_14pforge_runtime6promptNtB2_13PromptManager6render
FN:25,_RNvMNtCs5tBpiHiFbgs_14pforge_runtime6promptNtB2_13PromptManager8register
FNDA:0,_RNCNvMNtCsbgyBtKT5UPh_14pforge_runtime6promptNtB4_13PromptManager10get_prompt0B6_
FNDA:0,_RNCNvMNtCsbgyBtKT5UPh_14pforge_runtime6promptNtB4_13PromptManager11interpolate0B6_
FNDA:0,_RNCNvMNtCsbgyBtKT5UPh_14pforge_runtime6promptNtB4_13PromptManager11interpolates_0B6_
FNDA:0,_RNCNvMNtCsbgyBtKT5UPh_14pforge_runtime6promptNtB4_13PromptManager6render0B6_
FNDA:0,_RNvMNtCsbgyBtKT5UPh_14pforge_runtime6promptNtB2_13PromptManager10get_prompt
FNDA:0,_RNvMNtCsbgyBtKT5UPh_14pforge_runtime6promptNtB2_13PromptManager11interpolate
FNDA:0,_RNvMNtCsbgyBtKT5UPh_14pforge_runtime6promptNtB2_13PromptManager12list_prompts
FNDA:0,_RNvMNtCsbgyBtKT5UPh_14pforge_runtime6promptNtB2_13PromptManager18validate_arguments
FNDA:0,_RNvMNtCsbgyBtKT5UPh_14pforge_runtime6promptNtB2_13PromptManager3new
FNDA:0,_RNvMNtCsbgyBtKT5UPh_14pforge_runtime6promptNtB2_13PromptManager6render
FNDA:0,_RNvMNtCsbgyBtKT5UPh_14pforge_runtime6promptNtB2_13PromptManager8register
FNDA:0,_RNvXs_NtCsbgyBtKT5UPh_14pforge_runtime6promptNtB4_13PromptManagerNtNtCs5GmCzIpY9Qj_4core7default7Default7default
FNDA:0,_RNvNtNtCs5tBpiHiFbgs_14pforge_runtime6prompt5testss_24test_get_prompt_metadata
FNDA:0,_RNvNtNtCs5tBpiHiFbgs_14pforge_runtime6prompt5testss_24test_prompt_registration
FNDA:0,_RNvNtNtCs5tBpiHiFbgs_14pforge_runtime6prompt5testss_25test_simple_interpolation
FNDA:0,_RNvNtNtCs5tBpiHiFbgs_14pforge_runtime6prompt5testss_27test_unresolved_placeholder
FNDA:0,_RNvNtNtCs5tBpiHiFbgs_14pforge_runtime6prompt5testss_32test_complex_value_interpolation
FNDA:0,_RNvNtNtCs5tBpiHiFbgs_14pforge_runtime6prompt5testss_33test_required_argument_validation
FNDA:0,_RNvNtNtCs5tBpiHiFbgs_14pforge_runtime6prompt5testss_34test_duplicate_prompt_registration
FNDA:0,_RNvXs_NtCs5tBpiHiFbgs_14pforge_runtime6promptNtB4_13PromptManagerNtNtCs5GmCzIpY9Qj_4core7default7Default7default
FNDA:0,_RNCNvMNtCs5tBpiHiFbgs_14pforge_runtime6promptNtB4_13PromptManager10get_prompt0B6_
FNDA:0,_RNCNvMNtCs5tBpiHiFbgs_14pforge_runtime6promptNtB4_13PromptManager11interpolate0B6_
FNDA:0,_RNCNvMNtCs5tBpiHiFbgs_14pforge_runtime6promptNtB4_13PromptManager11interpolates_0B6_
FNDA:0,_RNCNvMNtCs5tBpiHiFbgs_14pforge_runtime6promptNtB4_13PromptManager6render0B6_
FNDA:0,_RNvMNtCs5tBpiHiFbgs_14pforge_runtime6promptNtB2_13PromptManager10get_prompt
FNDA:0,_RNvMNtCs5tBpiHiFbgs_14pforge_runtime6promptNtB2_13PromptManager11interpolate
FNDA:0,_RNvMNtCs5tBpiHiFbgs_14pforge_runtime6promptNtB2_13PromptManager12list_prompts
FNDA:0,_RNvMNtCs5tBpiHiFbgs_14pforge_runtime6promptNtB2_13PromptManager18validate_arguments
FNDA:0,_RNvMNtCs5tBpiHiFbgs_14pforge_runtime6promptNtB2_13PromptManager3new
FNDA:0,_RNvMNtCs5tBpiHiFbgs_14pforge_runtime6promptNtB2_13PromptManager6render
FNDA:0,_RNvMNtCs5tBpiHiFbgs_14pforge_runtime6promptNtB2_13PromptManager8register
FNF:19
FNH:0
DA:18,0
DA:19,0
DA:20,0
DA:21,0
DA:22,0
DA:25,0
DA:26,0
DA:27,0
DA:28,0
DA:29,0
DA:30,0
DA:31,0
DA:33,0
DA:34,0
DA:35,0
DA:36,0
DA:37,0
DA:38,0
DA:39,0
DA:42,0
DA:43,0
DA:46,0
DA:47,0
DA:48,0
DA:49,0
DA:50,0
DA:53,0
DA:56,0
DA:57,0
DA:60,0
DA:61,0
DA:62,0
DA:63,0
DA:64,0
DA:65,0
DA:68,0
DA:69,0
DA:70,0
DA:73,0
DA:74,0
DA:75,0
DA:76,0
DA:77,0
DA:79,0
DA:80,0
DA:81,0
DA:82,0
DA:85,0
DA:86,0
DA:87,0
DA:88,0
DA:89,0
DA:90,0
DA:94,0
DA:95,0
DA:99,0
DA:100,0
DA:102,0
DA:103,0
DA:104,0
DA:105,0
DA:106,0
DA:107,0
DA:108,0
DA:109,0
DA:110,0
DA:113,0
DA:117,0
DA:119,0
DA:120,0
DA:121,0
DA:122,0
DA:123,0
DA:125,0
DA:126,0
DA:127,0
DA:128,0
DA:129,0
DA:130,0
DA:131,0
DA:133,0
DA:134,0
DA:138,0
DA:139,0
DA:140,0
DA:157,0
DA:158,0
DA:160,0
DA:161,0
DA:162,0
DA:163,0
DA:164,0
DA:165,0
DA:167,0
DA:168,0
DA:169,0
DA:172,0
DA:173,0
DA:175,0
DA:176,0
DA:177,0
DA:178,0
DA:179,0
DA:180,0
DA:182,0
DA:183,0
DA:184,0
DA:185,0
DA:186,0
DA:189,0
DA:190,0
DA:192,0
DA:193,0
DA:194,0
DA:195,0
DA:196,0
DA:197,0
DA:199,0
DA:201,0
DA:202,0
DA:203,0
DA:205,0
DA:206,0
DA:207,0
DA:210,0
DA:211,0
DA:213,0
DA:214,0
DA:215,0
DA:216,0
DA:217,0
DA:218,0
DA:219,0
DA:220,0
DA:221,0
DA:222,0
DA:225,0
DA:226,0
DA:227,0
DA:228,0
DA:229,0
DA:230,0
DA:232,0
DA:234,0
DA:235,0
DA:236,0
DA:237,0
DA:238,0
DA:241,0
DA:242,0
DA:244,0
DA:245,0
DA:246,0
DA:247,0
DA:248,0
DA:249,0
DA:251,0
DA:253,0
DA:254,0
DA:257,0
DA:258,0
DA:259,0
DA:260,0
DA:263,0
DA:264,0
DA:266,0
DA:267,0
DA:268,0
DA:269,0
DA:270,0
DA:271,0
DA:272,0
DA:273,0
DA:274,0
DA:275,0
DA:278,0
DA:279,0
DA:280,0
DA:281,0
DA:282,0
DA:283,0
DA:285,0
DA:287,0
DA:288,0
DA:289,0
DA:290,0
DA:293,0
DA:294,0
DA:296,0
DA:297,0
DA:298,0
DA:299,0
DA:300,0
DA:301,0
DA:303,0
DA:305,0
DA:306,0
DA:307,0
DA:308,0
DA:310,0
DA:311,0
DA:312,0
BRF:0
BRH:0
LF:205
LH:0
end_of_record
SF:/home/noah/src/pforge/crates/pforge-runtime/src/recovery.rs
FN:61,_RINvMs_NtCsbgyBtKT5UPh_14pforge_runtime8recoveryNtB5_14CircuitBreaker4callNCNCNvCs4NrvKuwgNTo_11integrations_32test_circuit_breaker_integration00NCNCB1c_00uEB1g_
FN:61,_RINvMs_NtCsbgyBtKT5UPh_14pforge_runtime8recoveryNtB5_14CircuitBreaker4callNCNCNvCs4NrvKuwgNTo_11integrations_32test_circuit_breaker_integration0s0_0NCNCB1c_s0_00lEB1g_
FN:61,_RINvMs_NtCsbgyBtKT5UPh_14pforge_runtime8recoveryNtB5_14CircuitBreaker4callNCNCNvCs4NrvKuwgNTo_11integrations_32test_circuit_breaker_integration0s1_0NCNCB1c_s1_00lEB1g_
FN:61,_RINvMs_NtCsbgyBtKT5UPh_14pforge_runtime8recoveryNtB5_14CircuitBreaker4callNCNCNvCs4NrvKuwgNTo_11integrations_32test_circuit_breaker_integration0s2_0NCNCB1c_s2_00lEB1g_
FN:61,_RINvMs_NtCsbgyBtKT5UPh_14pforge_runtime8recoveryNtB5_14CircuitBreaker4callNCNCNvCs4NrvKuwgNTo_11integrations_32test_circuit_breaker_integration0s_0NCNCB1c_s_00lEB1g_
FN:65,_RNCINvMs_NtCsbgyBtKT5UPh_14pforge_runtime8recoveryNtB7_14CircuitBreaker4callNCNCNvCs4NrvKuwgNTo_11integrations_32test_circuit_breaker_integration00NCNCB1e_00uE0B1i_
FN:65,_RNCINvMs_NtCsbgyBtKT5UPh_14pforge_runtime8recoveryNtB7_14CircuitBreaker4callNCNCNvCs4NrvKuwgNTo_11integrations_32test_circuit_breaker_integration0s0_0NCNCB1e_s0_00lE0B1i_
FN:65,_RNCINvMs_NtCsbgyBtKT5UPh_14pforge_runtime8recoveryNtB7_14CircuitBreaker4callNCNCNvCs4NrvKuwgNTo_11integrations_32test_circuit_breaker_integration0s1_0NCNCB1e_s1_00lE0B1i_
FN:65,_RNCINvMs_NtCsbgyBtKT5UPh_14pforge_runtime8recoveryNtB7_14CircuitBreaker4callNCNCNvCs4NrvKuwgNTo_11integrations_32test_circuit_breaker_integration0s2_0NCNCB1e_s2_00lE0B1i_
FN:65,_RNCINvMs_NtCsbgyBtKT5UPh_14pforge_runtime8recoveryNtB7_14CircuitBreaker4callNCNCNvCs4NrvKuwgNTo_11integrations_32test_circuit_breaker_integration0s_0NCNCB1e_s_00lE0B1i_
FN:221,_RNCNvMs1_NtCsbgyBtKT5UPh_14pforge_runtime8recoveryNtB7_12ErrorTracker14errors_by_type0Cs4NrvKuwgNTo_11integration
FN:194,_RNvMs1_NtCsbgyBtKT5UPh_14pforge_runtime8recoveryNtB5_12ErrorTracker11track_error
FN:217,_RNvMs1_NtCsbgyBtKT5UPh_14pforge_runtime8recoveryNtB5_12ErrorTracker12total_errors
FN:202,_RNvMs1_NtCsbgyBtKT5UPh_14pforge_runtime8recoveryNtB5_12ErrorTracker14classify_error
FN:221,_RNvMs1_NtCsbgyBtKT5UPh_14pforge_runtime8recoveryNtB5_12ErrorTracker14errors_by_type
FN:187,_RNvMs1_NtCsbgyBtKT5UPh_14pforge_runtime8recoveryNtB5_12ErrorTracker3new
FN:225,_RNvMs1_NtCsbgyBtKT5UPh_14pforge_runtime8recoveryNtB5_12ErrorTracker5reset
FN:256,_RNvMs3_NtCsbgyBtKT5UPh_14pforge_runtime8recoveryNtB5_18RecoveryMiddleware13error_tracker
FN:251,_RNvMs3_NtCsbgyBtKT5UPh_14pforge_runtime8recoveryNtB5_18RecoveryMiddleware20with_circuit_breaker
FN:244,_RNvMs3_NtCsbgyBtKT5UPh_14pforge_runtime8recoveryNtB5_18RecoveryMiddleware3new
FN:118,_RNvMs_NtCsbgyBtKT5UPh_14pforge_runtime8recoveryNtB4_14CircuitBreaker10on_failure
FN:98,_RNvMs_NtCsbgyBtKT5UPh_14pforge_runtime8recoveryNtB4_14CircuitBreaker10on_success
FN:47,_RNvMs_NtCsbgyBtKT5UPh_14pforge_runtime8recoveryNtB4_14CircuitBreaker3new
FN:57,_RNvMs_NtCsbgyBtKT5UPh_14pforge_runtime8recoveryNtB4_14CircuitBreaker9get_state
FN:139,_RNvMs_NtCsbgyBtKT5UPh_14pforge_runtime8recoveryNtB4_14CircuitBreaker9get_stats
FN:28,_RNvXNtCsbgyBtKT5UPh_14pforge_runtime8recoveryNtB2_20CircuitBreakerConfigNtNtCs5GmCzIpY9Qj_4core7default7Default7default
FN:232,_RNvXs2_NtCsbgyBtKT5UPh_14pforge_runtime8recoveryNtB5_12ErrorTrackerNtNtCs5GmCzIpY9Qj_4core7default7Default7default
FN:262,_RNvXs4_NtCsbgyBtKT5UPh_14pforge_runtime8recoveryNtB5_18RecoveryMiddlewareNtNtCs5GmCzIpY9Qj_4core7default7Default7default
FN:292,_RNvXsf_NtCsbgyBtKT5UPh_14pforge_runtime8recoveryNtB5_18RecoveryMiddlewareNtNtB7_10middleware10Middleware5after
FN:269,_RNvXsf_NtCsbgyBtKT5UPh_14pforge_runtime8recoveryNtB5_18RecoveryMiddlewareNtNtB7_10middleware10Middleware6before
FN:280,_RNvXsf_NtCsbgyBtKT5UPh_14pforge_runtime8recoveryNtB5_18RecoveryMiddlewareNtNtB7_10middleware10Middleware8on_error
FN:194,_RNCNvMs1_NtCsbgyBtKT5UPh_14pforge_runtime8recoveryNtB7_12ErrorTracker11track_error0B9_
FN:118,_RNCNvMs_NtCsbgyBtKT5UPh_14pforge_runtime8recoveryNtB6_14CircuitBreaker10on_failure0B8_
FN:98,_RNCNvMs_NtCsbgyBtKT5UPh_14pforge_runtime8recoveryNtB6_14CircuitBreaker10on_success0B8_
FN:57,_RNCNvMs_NtCsbgyBtKT5UPh_14pforge_runtime8recoveryNtB6_14CircuitBreaker9get_state0B8_
FN:194,_RNvMs1_NtCs5tBpiHiFbgs_14pforge_runtime8recoveryNtB5_12ErrorTracker11track_error
FN:217,_RNvMs1_NtCs5tBpiHiFbgs_14pforge_runtime8recoveryNtB5_12ErrorTracker12total_errors
FN:202,_RNvMs1_NtCs5tBpiHiFbgs_14pforge_runtime8recoveryNtB5_12ErrorTracker14classify_error
FN:221,_RNvMs1_NtCs5tBpiHiFbgs_14pforge_runtime8recoveryNtB5_12ErrorTracker14errors_by_type
FN:187,_RNvMs1_NtCs5tBpiHiFbgs_14pforge_runtime8recoveryNtB5_12ErrorTracker3new
FN:256,_RNvMs3_NtCs5tBpiHiFbgs_14pforge_runtime8recoveryNtB5_18RecoveryMiddleware13error_tracker
FN:251,_RNvMs3_NtCs5tBpiHiFbgs_14pforge_runtime8recoveryNtB5_18RecoveryMiddleware20with_circuit_breaker
FN:244,_RNvMs3_NtCs5tBpiHiFbgs_14pforge_runtime8recoveryNtB5_18RecoveryMiddleware3new
FN:118,_RNvMs_NtCs5tBpiHiFbgs_14pforge_runtime8recoveryNtB4_14CircuitBreaker10on_failure
FN:98,_RNvMs_NtCs5tBpiHiFbgs_14pforge_runtime8recoveryNtB4_14CircuitBreaker10on_success
FN:47,_RNvMs_NtCs5tBpiHiFbgs_14pforge_runtime8recoveryNtB4_14CircuitBreaker3new
FN:57,_RNvMs_NtCs5tBpiHiFbgs_14pforge_runtime8recoveryNtB4_14CircuitBreaker9get_state
FN:269,_RNvXsf_NtCs5tBpiHiFbgs_14pforge_runtime8recoveryNtB5_18RecoveryMiddlewareNtNtB7_10middleware10Middleware6before
FN:280,_RNvXsf_NtCs5tBpiHiFbgs_14pforge_runtime8recoveryNtB5_18RecoveryMiddlewareNtNtB7_10middleware10Middleware8on_error
FN:61,_RINvMs_NtCs5tBpiHiFbgs_14pforge_runtime8recoveryNtB5_14CircuitBreaker4callNCNCNvNtB5_5testss_35test_circuit_breaker_closed_to_open00NCNCB1c_00uEB7_
FN:61,_RINvMs_NtCs5tBpiHiFbgs_14pforge_runtime8recoveryNtB5_14CircuitBreaker4callNCNCNvNtB5_5testss_38test_circuit_breaker_rejects_when_open00NCNCB1c_00uEB7_
FN:61,_RINvMs_NtCs5tBpiHiFbgs_14pforge_runtime8recoveryNtB5_14CircuitBreaker4callNCNCNvNtB5_5testss_38test_circuit_breaker_rejects_when_open0s_0NCNCB1c_s_00lEB7_
FN:61,_RINvMs_NtCs5tBpiHiFbgs_14pforge_runtime8recoveryNtB5_14CircuitBreaker4callNCNCNvNtB5_5testss_39test_circuit_breaker_half_open_recovery00NCNCB1c_00uEB7_
FN:61,_RINvMs_NtCs5tBpiHiFbgs_14pforge_runtime8recoveryNtB5_14CircuitBreaker4callNCNCNvNtB5_5testss_39test_circuit_breaker_half_open_recovery0s0_0NCNCB1c_s0_00lEB7_
FN:61,_RINvMs_NtCs5tBpiHiFbgs_14pforge_runtime8recoveryNtB5_14CircuitBreaker4callNCNCNvNtB5_5testss_39test_circuit_breaker_half_open_recovery0s_0NCNCB1c_s_00lEB7_
FN:65,_RNCINvMs_NtCs5tBpiHiFbgs_14pforge_runtime8recoveryNtB7_14CircuitBreaker4callNCNCNvNtB7_5testss_35test_circuit_breaker_closed_to_open00NCNCB1e_00uE0B9_
FN:65,_RNCINvMs_NtCs5tBpiHiFbgs_14pforge_runtime8recoveryNtB7_14CircuitBreaker4callNCNCNvNtB7_5testss_38test_circuit_breaker_rejects_when_open00NCNCB1e_00uE0B9_
FN:65,_RNCINvMs_NtCs5tBpiHiFbgs_14pforge_runtime8recoveryNtB7_14CircuitBreaker4callNCNCNvNtB7_5testss_38test_circuit_breaker_rejects_when_open0s_0NCNCB1e_s_00lE0B9_
FN:65,_RNCINvMs_NtCs5tBpiHiFbgs_14pforge_runtime8recoveryNtB7_14CircuitBreaker4callNCNCNvNtB7_5testss_39test_circuit_breaker_half_open_recovery00NCNCB1e_00uE0B9_
FN:65,_RNCINvMs_NtCs5tBpiHiFbgs_14pforge_runtime8recoveryNtB7_14CircuitBreaker4callNCNCNvNtB7_5testss_39test_circuit_breaker_half_open_recovery0s0_0NCNCB1e_s0_00lE0B9_
FN:65,_RNCINvMs_NtCs5tBpiHiFbgs_14pforge_runtime8recoveryNtB7_14CircuitBreaker4callNCNCNvNtB7_5testss_39test_circuit_breaker_half_open_recovery0s_0NCNCB1e_s_00lE0B9_
FN:175,_RNCNvMs0_NtCs5tBpiHiFbgs_14pforge_runtime8recoveryINtB7_15FallbackHandlerNCNCNvNtB7_5testss_21test_fallback_handler00NCNCB1b_00E12handle_error0B9_
FN:194,_RNCNvMs1_NtCs5tBpiHiFbgs_14pforge_runtime8recoveryNtB7_12ErrorTracker11track_error0B9_
FN:221,_RNCNvMs1_NtCs5tBpiHiFbgs_14pforge_runtime8recoveryNtB7_12ErrorTracker14errors_by_type0B9_
FN:118,_RNCNvMs_NtCs5tBpiHiFbgs_14pforge_runtime8recoveryNtB6_14CircuitBreaker10on_failure0B8_
FN:98,_RNCNvMs_NtCs5tBpiHiFbgs_14pforge_runtime8recoveryNtB6_14CircuitBreaker10on_success0B8_
FN:57,_RNCNvMs_NtCs5tBpiHiFbgs_14pforge_runtime8recoveryNtB6_14CircuitBreaker9get_state0B8_
FN:175,_RNvMs0_NtCs5tBpiHiFbgs_14pforge_runtime8recoveryINtB5_15FallbackHandlerNCNCNvNtB5_5testss_21test_fallback_handler00NCNCB19_00E12handle_errorB7_
FN:168,_RNvMs0_NtCs5tBpiHiFbgs_14pforge_runtime8recoveryINtB5_15FallbackHandlerNCNCNvNtB5_5testss_21test_fallback_handler00NCNCB19_00E3newB7_
FN:225,_RNCNvMs1_NtCs5tBpiHiFbgs_14pforge_runtime8recoveryNtB7_12ErrorTracker5reset0B9_
FN:225,_RNvMs1_NtCs5tBpiHiFbgs_14pforge_runtime8recoveryNtB5_12ErrorTracker5reset
FN:139,_RNvMs_NtCs5tBpiHiFbgs_14pforge_runtime8recoveryNtB4_14CircuitBreaker9get_stats
FN:28,_RNvXNtCs5tBpiHiFbgs_14pforge_runtime8recoveryNtB2_20CircuitBreakerConfigNtNtCs5GmCzIpY9Qj_4core7default7Default7default
FN:232,_RNvXs2_NtCs5tBpiHiFbgs_14pforge_runtime8recoveryNtB5_12ErrorTrackerNtNtCs5GmCzIpY9Qj_4core7default7Default7default
FN:262,_RNvXs4_NtCs5tBpiHiFbgs_14pforge_runtime8recoveryNtB5_18RecoveryMiddlewareNtNtCs5GmCzIpY9Qj_4core7default7Default7default
FN:292,_RNvXsf_NtCs5tBpiHiFbgs_14pforge_runtime8recoveryNtB5_18RecoveryMiddlewareNtNtB7_10middleware10Middleware5after
FN:402,_RNCNCNCNvNtNtCs5tBpiHiFbgs_14pforge_runtime8recovery5testss_21test_fallback_handler000Bb_
FN:323,_RNCNCNCNvNtNtCs5tBpiHiFbgs_14pforge_runtime8recovery5testss_35test_circuit_breaker_closed_to_open000Bb_
FN:373,_RNCNCNCNvNtNtCs5tBpiHiFbgs_14pforge_runtime8recovery5testss_38test_circuit_breaker_rejects_when_open000Bb_
FN:377,_RNCNCNCNvNtNtCs5tBpiHiFbgs_14pforge_runtime8recovery5testss_38test_circuit_breaker_rejects_when_open0s_00Bb_
FN:343,_RNCNCNCNvNtNtCs5tBpiHiFbgs_14pforge_runtime8recovery5testss_39test_circuit_breaker_half_open_recovery000Bb_
FN:357,_RNCNCNCNvNtNtCs5tBpiHiFbgs_14pforge_runtime8recovery5testss_39test_circuit_breaker_half_open_recovery0s0_00Bb_
FN:353,_RNCNCNCNvNtNtCs5tBpiHiFbgs_14pforge_runtime8recovery5testss_39test_circuit_breaker_half_open_recovery0s_00Bb_
FN:406,_RNCNCNvNtNtCs5tBpiHiFbgs_14pforge_runtime8recovery5testss_21test_fallback_handler00B9_
FN:323,_RNCNCNvNtNtCs5tBpiHiFbgs_14pforge_runtime8recovery5testss_35test_circuit_breaker_closed_to_open00B9_
FN:373,_RNCNCNvNtNtCs5tBpiHiFbgs_14pforge_runtime8recovery5testss_38test_circuit_breaker_rejects_when_open00B9_
FN:377,_RNCNCNvNtNtCs5tBpiHiFbgs_14pforge_runtime8recovery5testss_38test_circuit_breaker_rejects_when_open0s_0B9_
FN:343,_RNCNCNvNtNtCs5tBpiHiFbgs_14pforge_runtime8recovery5testss_39test_circuit_breaker_half_open_recovery00B9_
FN:357,_RNCNCNvNtNtCs5tBpiHiFbgs_14pforge_runtime8recovery5testss_39test_circuit_breaker_half_open_recovery0s0_0B9_
FN:353,_RNCNCNvNtNtCs5tBpiHiFbgs_14pforge_runtime8recovery5testss_39test_circuit_breaker_half_open_recovery0s_0B9_
FN:383,_RNCNvNtNtCs5tBpiHiFbgs_14pforge_runtime8recovery5testss_18test_error_tracker0B7_
FN:401,_RNCNvNtNtCs5tBpiHiFbgs_14pforge_runtime8recovery5testss_21test_fallback_handler0B7_
FN:308,_RNCNvNtNtCs5tBpiHiFbgs_14pforge_runtime8recovery5testss_35test_circuit_breaker_closed_to_open0B7_
FN:417,_RNCNvNtNtCs5tBpiHiFbgs_14pforge_runtime8recovery5testss_36test_recovery_middleware_integration0B7_
FN:362,_RNCNvNtNtCs5tBpiHiFbgs_14pforge_runtime8recovery5testss_38test_circuit_breaker_rejects_when_open0B7_
FN:331,_RNCNvNtNtCs5tBpiHiFbgs_14pforge_runtime8recovery5testss_39test_circuit_breaker_half_open_recovery0B7_
FN:383,_RNvNtNtCs5tBpiHiFbgs_14pforge_runtime8recovery5testss_18test_error_tracker
FN:401,_RNvNtNtCs5tBpiHiFbgs_14pforge_runtime8recovery5testss_21test_fallback_handler
FN:308,_RNvNtNtCs5tBpiHiFbgs_14pforge_runtime8recovery5testss_35test_circuit_breaker_closed_to_open
FN:417,_RNvNtNtCs5tBpiHiFbgs_14pforge_runtime8recovery5testss_36test_recovery_middleware_integration
FN:362,_RNvNtNtCs5tBpiHiFbgs_14pforge_runtime8recovery5testss_38test_circuit_breaker_rejects_when_open
FN:331,_RNvNtNtCs5tBpiHiFbgs_14pforge_runtime8recovery5testss_39test_circuit_breaker_half_open_recovery
FNDA:0,_RINvMs_NtCsbgyBtKT5UPh_14pforge_runtime8recoveryNtB5_14CircuitBreaker4callNCNCNvCs4NrvKuwgNTo_11integrations_32test_circuit_breaker_integration00NCNCB1c_00uEB1g_
FNDA:0,_RINvMs_NtCsbgyBtKT5UPh_14pforge_runtime8recoveryNtB5_14CircuitBreaker4callNCNCNvCs4NrvKuwgNTo_11integrations_32test_circuit_breaker_integration0s0_0NCNCB1c_s0_00lEB1g_
FNDA:0,_RINvMs_NtCsbgyBtKT5UPh_14pforge_runtime8recoveryNtB5_14CircuitBreaker4callNCNCNvCs4NrvKuwgNTo_11integrations_32test_circuit_breaker_integration0s1_0NCNCB1c_s1_00lEB1g_
FNDA:0,_RINvMs_NtCsbgyBtKT5UPh_14pforge_runtime8recoveryNtB5_14CircuitBreaker4callNCNCNvCs4NrvKuwgNTo_11integrations_32test_circuit_breaker_integration0s2_0NCNCB1c_s2_00lEB1g_
FNDA:0,_RINvMs_NtCsbgyBtKT5UPh_14pforge_runtime8recoveryNtB5_14CircuitBreaker4callNCNCNvCs4NrvKuwgNTo_11integrations_32test_circuit_breaker_integration0s_0NCNCB1c_s_00lEB1g_
FNDA:0,_RNCINvMs_NtCsbgyBtKT5UPh_14pforge_runtime8recoveryNtB7_14CircuitBreaker4callNCNCNvCs4NrvKuwgNTo_11integrations_32test_circuit_breaker_integration00NCNCB1e_00uE0B1i_
FNDA:0,_RNCINvMs_NtCsbgyBtKT5UPh_14pforge_runtime8recoveryNtB7_14CircuitBreaker4callNCNCNvCs4NrvKuwgNTo_11integrations_32test_circuit_breaker_integration0s0_0NCNCB1e_s0_00lE0B1i_
FNDA:0,_RNCINvMs_NtCsbgyBtKT5UPh_14pforge_runtime8recoveryNtB7_14CircuitBreaker4callNCNCNvCs4NrvKuwgNTo_11integrations_32test_circuit_breaker_integration0s1_0NCNCB1e_s1_00lE0B1i_
FNDA:0,_RNCINvMs_NtCsbgyBtKT5UPh_14pforge_runtime8recoveryNtB7_14CircuitBreaker4callNCNCNvCs4NrvKuwgNTo_11integrations_32test_circuit_breaker_integration0s2_0NCNCB1e_s2_00lE0B1i_
FNDA:0,_RNCINvMs_NtCsbgyBtKT5UPh_14pforge_runtime8recoveryNtB7_14CircuitBreaker4callNCNCNvCs4NrvKuwgNTo_11integrations_32test_circuit_breaker_integration0s_0NCNCB1e_s_00lE0B1i_
FNDA:0,_RNCNvMs1_NtCsbgyBtKT5UPh_14pforge_runtime8recoveryNtB7_12ErrorTracker14errors_by_type0Cs4NrvKuwgNTo_11integration
FNDA:0,_RNvMs1_NtCsbgyBtKT5UPh_14pforge_runtime8recoveryNtB5_12ErrorTracker11track_error
FNDA:0,_RNvMs1_NtCsbgyBtKT5UPh_14pforge_runtime8recoveryNtB5_12ErrorTracker12total_errors
FNDA:0,_RNvMs1_NtCsbgyBtKT5UPh_14pforge_runtime8recoveryNtB5_12ErrorTracker14classify_error
FNDA:0,_RNvMs1_NtCsbgyBtKT5UPh_14pforge_runtime8recoveryNtB5_12ErrorTracker14errors_by_type
FNDA:0,_RNvMs1_NtCsbgyBtKT5UPh_14pforge_runtime8recoveryNtB5_12ErrorTracker3new
FNDA:0,_RNvMs1_NtCsbgyBtKT5UPh_14pforge_runtime8recoveryNtB5_12ErrorTracker5reset
FNDA:0,_RNvMs3_NtCsbgyBtKT5UPh_14pforge_runtime8recoveryNtB5_18RecoveryMiddleware13error_tracker
FNDA:0,_RNvMs3_NtCsbgyBtKT5UPh_14pforge_runtime8recoveryNtB5_18RecoveryMiddleware20with_circuit_breaker
FNDA:0,_RNvMs3_NtCsbgyBtKT5UPh_14pforge_runtime8recoveryNtB5_18RecoveryMiddleware3new
FNDA:0,_RNvMs_NtCsbgyBtKT5UPh_14pforge_runtime8recoveryNtB4_14CircuitBreaker10on_failure
FNDA:0,_RNvMs_NtCsbgyBtKT5UPh_14pforge_runtime8recoveryNtB4_14CircuitBreaker10on_success
FNDA:0,_RNvMs_NtCsbgyBtKT5UPh_14pforge_runtime8recoveryNtB4_14CircuitBreaker3new
FNDA:0,_RNvMs_NtCsbgyBtKT5UPh_14pforge_runtime8recoveryNtB4_14CircuitBreaker9get_state
FNDA:0,_RNvMs_NtCsbgyBtKT5UPh_14pforge_runtime8recoveryNtB4_14CircuitBreaker9get_stats
FNDA:0,_RNvXNtCsbgyBtKT5UPh_14pforge_runtime8recoveryNtB2_20CircuitBreakerConfigNtNtCs5GmCzIpY9Qj_4core7default7Default7default
FNDA:0,_RNvXs2_NtCsbgyBtKT5UPh_14pforge_runtime8recoveryNtB5_12ErrorTrackerNtNtCs5GmCzIpY9Qj_4core7default7Default7default
FNDA:0,_RNvXs4_NtCsbgyBtKT5UPh_14pforge_runtime8recoveryNtB5_18RecoveryMiddlewareNtNtCs5GmCzIpY9Qj_4core7default7Default7default
FNDA:0,_RNvXsf_NtCsbgyBtKT5UPh_14pforge_runtime8recoveryNtB5_18RecoveryMiddlewareNtNtB7_10middleware10Middleware5after
FNDA:0,_RNvXsf_NtCsbgyBtKT5UPh_14pforge_runtime8recoveryNtB5_18RecoveryMiddlewareNtNtB7_10middleware10Middleware6before
FNDA:0,_RNvXsf_NtCsbgyBtKT5UPh_14pforge_runtime8recoveryNtB5_18RecoveryMiddlewareNtNtB7_10middleware10Middleware8on_error
FNDA:0,_RNCNvMs1_NtCsbgyBtKT5UPh_14pforge_runtime8recoveryNtB7_12ErrorTracker11track_error0B9_
FNDA:0,_RNCNvMs_NtCsbgyBtKT5UPh_14pforge_runtime8recoveryNtB6_14CircuitBreaker10on_failure0B8_
FNDA:0,_RNCNvMs_NtCsbgyBtKT5UPh_14pforge_runtime8recoveryNtB6_14CircuitBreaker10on_success0B8_
FNDA:0,_RNCNvMs_NtCsbgyBtKT5UPh_14pforge_runtime8recoveryNtB6_14CircuitBreaker9get_state0B8_
FNDA:0,_RNvMs1_NtCs5tBpiHiFbgs_14pforge_runtime8recoveryNtB5_12ErrorTracker11track_error
FNDA:0,_RNvMs1_NtCs5tBpiHiFbgs_14pforge_runtime8recoveryNtB5_12ErrorTracker12total_errors
FNDA:0,_RNvMs1_NtCs5tBpiHiFbgs_14pforge_runtime8recoveryNtB5_12ErrorTracker14classify_error
FNDA:0,_RNvMs1_NtCs5tBpiHiFbgs_14pforge_runtime8recoveryNtB5_12ErrorTracker14errors_by_type
FNDA:0,_RNvMs1_NtCs5tBpiHiFbgs_14pforge_runtime8recoveryNtB5_12ErrorTracker3new
FNDA:0,_RNvMs3_NtCs5tBpiHiFbgs_14pforge_runtime8recoveryNtB5_18RecoveryMiddleware13error_tracker
FNDA:0,_RNvMs3_NtCs5tBpiHiFbgs_14pforge_runtime8recoveryNtB5_18RecoveryMiddleware20with_circuit_breaker
FNDA:0,_RNvMs3_NtCs5tBpiHiFbgs_14pforge_runtime8recoveryNtB5_18RecoveryMiddleware3new
FNDA:0,_RNvMs_NtCs5tBpiHiFbgs_14pforge_runtime8recoveryNtB4_14CircuitBreaker10on_failure
FNDA:0,_RNvMs_NtCs5tBpiHiFbgs_14pforge_runtime8recoveryNtB4_14CircuitBreaker10on_success
FNDA:0,_RNvMs_NtCs5tBpiHiFbgs_14pforge_runtime8recoveryNtB4_14CircuitBreaker3new
FNDA:0,_RNvMs_NtCs5tBpiHiFbgs_14pforge_runtime8recoveryNtB4_14CircuitBreaker9get_state
FNDA:0,_RNvXsf_NtCs5tBpiHiFbgs_14pforge_runtime8recoveryNtB5_18RecoveryMiddlewareNtNtB7_10middleware10Middleware6before
FNDA:0,_RNvXsf_NtCs5tBpiHiFbgs_14pforge_runtime8recoveryNtB5_18RecoveryMiddlewareNtNtB7_10middleware10Middleware8on_error
FNDA:0,_RINvMs_NtCs5tBpiHiFbgs_14pforge_runtime8recoveryNtB5_14CircuitBreaker4callNCNCNvNtB5_5testss_35test_circuit_breaker_closed_to_open00NCNCB1c_00uEB7_
FNDA:0,_RINvMs_NtCs5tBpiHiFbgs_14pforge_runtime8recoveryNtB5_14CircuitBreaker4callNCNCNvNtB5_5testss_38test_circuit_breaker_rejects_when_open00NCNCB1c_00uEB7_
FNDA:0,_RINvMs_NtCs5tBpiHiFbgs_14pforge_runtime8recoveryNtB5_14CircuitBreaker4callNCNCNvNtB5_5testss_38test_circuit_breaker_rejects_when_open0s_0NCNCB1c_s_00lEB7_
FNDA:0,_RINvMs_NtCs5tBpiHiFbgs_14pforge_runtime8recoveryNtB5_14CircuitBreaker4callNCNCNvNtB5_5testss_39test_circuit_breaker_half_open_recovery00NCNCB1c_00uEB7_
FNDA:0,_RINvMs_NtCs5tBpiHiFbgs_14pforge_runtime8recoveryNtB5_14CircuitBreaker4callNCNCNvNtB5_5testss_39test_circuit_breaker_half_open_recovery0s0_0NCNCB1c_s0_00lEB7_
FNDA:0,_RINvMs_NtCs5tBpiHiFbgs_14pforge_runtime8recoveryNtB5_14CircuitBreaker4callNCNCNvNtB5_5testss_39test_circuit_breaker_half_open_recovery0s_0NCNCB1c_s_00lEB7_
FNDA:0,_RNCINvMs_NtCs5tBpiHiFbgs_14pforge_runtime8recoveryNtB7_14CircuitBreaker4callNCNCNvNtB7_5testss_35test_circuit_breaker_closed_to_open00NCNCB1e_00uE0B9_
FNDA:0,_RNCINvMs_NtCs5tBpiHiFbgs_14pforge_runtime8recoveryNtB7_14CircuitBreaker4callNCNCNvNtB7_5testss_38test_circuit_breaker_rejects_when_open00NCNCB1e_00uE0B9_
FNDA:0,_RNCINvMs_NtCs5tBpiHiFbgs_14pforge_runtime8recoveryNtB7_14CircuitBreaker4callNCNCNvNtB7_5testss_38test_circuit_breaker_rejects_when_open0s_0NCNCB1e_s_00lE0B9_
FNDA:0,_RNCINvMs_NtCs5tBpiHiFbgs_14pforge_runtime8recoveryNtB7_14CircuitBreaker4callNCNCNvNtB7_5testss_39test_circuit_breaker_half_open_recovery00NCNCB1e_00uE0B9_
FNDA:0,_RNCINvMs_NtCs5tBpiHiFbgs_14pforge_runtime8recoveryNtB7_14CircuitBreaker4callNCNCNvNtB7_5testss_39test_circuit_breaker_half_open_recovery0s0_0NCNCB1e_s0_00lE0B9_
FNDA:0,_RNCINvMs_NtCs5tBpiHiFbgs_14pforge_runtime8recoveryNtB7_14CircuitBreaker4callNCNCNvNtB7_5testss_39test_circuit_breaker_half_open_recovery0s_0NCNCB1e_s_00lE0B9_
FNDA:0,_RNCNvMs0_NtCs5tBpiHiFbgs_14pforge_runtime8recoveryINtB7_15FallbackHandlerNCNCNvNtB7_5testss_21test_fallback_handler00NCNCB1b_00E12handle_error0B9_
FNDA:0,_RNCNvMs1_NtCs5tBpiHiFbgs_14pforge_runtime8recoveryNtB7_12ErrorTracker11track_error0B9_
FNDA:0,_RNCNvMs1_NtCs5tBpiHiFbgs_14pforge_runtime8recoveryNtB7_12ErrorTracker14errors_by_type0B9_
FNDA:0,_RNCNvMs_NtCs5tBpiHiFbgs_14pforge_runtime8recoveryNtB6_14CircuitBreaker10on_failure0B8_
FNDA:0,_RNCNvMs_NtCs5tBpiHiFbgs_14pforge_runtime8recoveryNtB6_14CircuitBreaker10on_success0B8_
FNDA:0,_RNCNvMs_NtCs5tBpiHiFbgs_14pforge_runtime8recoveryNtB6_14CircuitBreaker9get_state0B8_
FNDA:0,_RNvMs0_NtCs5tBpiHiFbgs_14pforge_runtime8recoveryINtB5_15FallbackHandlerNCNCNvNtB5_5testss_21test_fallback_handler00NCNCB19_00E12handle_errorB7_
FNDA:0,_RNvMs0_NtCs5tBpiHiFbgs_14pforge_runtime8recoveryINtB5_15FallbackHandlerNCNCNvNtB5_5testss_21test_fallback_handler00NCNCB19_00E3newB7_
FNDA:0,_RNCNvMs1_NtCs5tBpiHiFbgs_14pforge_runtime8recoveryNtB7_12ErrorTracker5reset0B9_
FNDA:0,_RNvMs1_NtCs5tBpiHiFbgs_14pforge_runtime8recoveryNtB5_12ErrorTracker5reset
FNDA:0,_RNvMs_NtCs5tBpiHiFbgs_14pforge_runtime8recoveryNtB4_14CircuitBreaker9get_stats
FNDA:0,_RNvXNtCs5tBpiHiFbgs_14pforge_runtime8recoveryNtB2_20CircuitBreakerConfigNtNtCs5GmCzIpY9Qj_4core7default7Default7default
FNDA:0,_RNvXs2_NtCs5tBpiHiFbgs_14pforge_runtime8recoveryNtB5_12ErrorTrackerNtNtCs5GmCzIpY9Qj_4core7default7Default7default
FNDA:0,_RNvXs4_NtCs5tBpiHiFbgs_14pforge_runtime8recoveryNtB5_18RecoveryMiddlewareNtNtCs5GmCzIpY9Qj_4core7default7Default7default
FNDA:0,_RNvXsf_NtCs5tBpiHiFbgs_14pforge_runtime8recoveryNtB5_18RecoveryMiddlewareNtNtB7_10middleware10Middleware5after
FNDA:0,_RNCNCNCNvNtNtCs5tBpiHiFbgs_14pforge_runtime8recovery5testss_21test_fallback_handler000Bb_
FNDA:0,_RNCNCNCNvNtNtCs5tBpiHiFbgs_14pforge_runtime8recovery5testss_35test_circuit_breaker_closed_to_open000Bb_
FNDA:0,_RNCNCNCNvNtNtCs5tBpiHiFbgs_14pforge_runtime8recovery5testss_38test_circuit_breaker_rejects_when_open000Bb_
FNDA:0,_RNCNCNCNvNtNtCs5tBpiHiFbgs_14pforge_runtime8recovery5testss_38test_circuit_breaker_rejects_when_open0s_00Bb_
FNDA:0,_RNCNCNCNvNtNtCs5tBpiHiFbgs_14pforge_runtime8recovery5testss_39test_circuit_breaker_half_open_recovery000Bb_
FNDA:0,_RNCNCNCNvNtNtCs5tBpiHiFbgs_14pforge_runtime8recovery5testss_39test_circuit_breaker_half_open_recovery0s0_00Bb_
FNDA:0,_RNCNCNCNvNtNtCs5tBpiHiFbgs_14pforge_runtime8recovery5testss_39test_circuit_breaker_half_open_recovery0s_00Bb_
FNDA:0,_RNCNCNvNtNtCs5tBpiHiFbgs_14pforge_runtime8recovery5testss_21test_fallback_handler00B9_
FNDA:0,_RNCNCNvNtNtCs5tBpiHiFbgs_14pforge_runtime8recovery5testss_35test_circuit_breaker_closed_to_open00B9_
FNDA:0,_RNCNCNvNtNtCs5tBpiHiFbgs_14pforge_runtime8recovery5testss_38test_circuit_breaker_rejects_when_open00B9_
FNDA:0,_RNCNCNvNtNtCs5tBpiHiFbgs_14pforge_runtime8recovery5testss_38test_circuit_breaker_rejects_when_open0s_0B9_
FNDA:0,_RNCNCNvNtNtCs5tBpiHiFbgs_14pforge_runtime8recovery5testss_39test_circuit_breaker_half_open_recovery00B9_
FNDA:0,_RNCNCNvNtNtCs5tBpiHiFbgs_14pforge_runtime8recovery5testss_39test_circuit_breaker_half_open_recovery0s0_0B9_
FNDA:0,_RNCNCNvNtNtCs5tBpiHiFbgs_14pforge_runtime8recovery5testss_39test_circuit_breaker_half_open_recovery0s_0B9_
FNDA:0,_RNCNvNtNtCs5tBpiHiFbgs_14pforge_runtime8recovery5testss_18test_error_tracker0B7_
FNDA:0,_RNCNvNtNtCs5tBpiHiFbgs_14pforge_runtime8recovery5testss_21test_fallback_handler0B7_
FNDA:0,_RNCNvNtNtCs5tBpiHiFbgs_14pforge_runtime8recovery5testss_35test_circuit_breaker_closed_to_open0B7_
FNDA:0,_RNCNvNtNtCs5tBpiHiFbgs_14pforge_runtime8recovery5testss_36test_recovery_middleware_integration0B7_
FNDA:0,_RNCNvNtNtCs5tBpiHiFbgs_14pforge_runtime8recovery5testss_38test_circuit_breaker_rejects_when_open0B7_
FNDA:0,_RNCNvNtNtCs5tBpiHiFbgs_14pforge_runtime8recovery5testss_39test_circuit_breaker_half_open_recovery0B7_
FNDA:0,_RNvNtNtCs5tBpiHiFbgs_14pforge_runtime8recovery5testss_18test_error_tracker
FNDA:0,_RNvNtNtCs5tBpiHiFbgs_14pforge_runtime8recovery5testss_21test_fallback_handler
FNDA:0,_RNvNtNtCs5tBpiHiFbgs_14pforge_runtime8recovery5testss_35test_circuit_breaker_closed_to_open
FNDA:0,_RNvNtNtCs5tBpiHiFbgs_14pforge_runtime8recovery5testss_36test_recovery_middleware_integration
FNDA:0,_RNvNtNtCs5tBpiHiFbgs_14pforge_runtime8recovery5testss_38test_circuit_breaker_rejects_when_open
FNDA:0,_RNvNtNtCs5tBpiHiFbgs_14pforge_runtime8recovery5testss_39test_circuit_breaker_half_open_recovery
FNF:57
FNH:0
DA:28,0
DA:29,0
DA:30,0
DA:31,0
DA:32,0
DA:33,0
DA:34,0
DA:47,0
DA:48,0
DA:49,0
DA:50,0
DA:51,0
DA:52,0
DA:53,0
DA:54,0
DA:55,0
DA:57,0
DA:58,0
DA:59,0
DA:61,0
DA:62,0
DA:63,0
DA:64,0
DA:65,0
DA:67,0
DA:69,0
DA:72,0
DA:73,0
DA:75,0
DA:76,0
DA:78,0
DA:80,0
DA:82,0
DA:86,0
DA:87,0
DA:88,0
DA:89,0
DA:91,0
DA:92,0
DA:93,0
DA:96,0
DA:98,0
DA:99,0
DA:101,0
DA:103,0
DA:104,0
DA:105,0
DA:106,0
DA:107,0
DA:108,0
DA:110,0
DA:111,0
DA:112,0
DA:113,0
DA:114,0
DA:116,0
DA:118,0
DA:119,0
DA:121,0
DA:123,0
DA:124,0
DA:125,0
DA:126,0
DA:127,0
DA:131,0
DA:132,0
DA:133,0
DA:135,0
DA:137,0
DA:139,0
DA:140,0
DA:141,0
DA:142,0
DA:143,0
DA:144,0
DA:168,0
DA:169,0
DA:170,0
DA:171,0
DA:172,0
DA:173,0
DA:175,0
DA:176,0
DA:177,0
DA:187,0
DA:188,0
DA:189,0
DA:190,0
DA:191,0
DA:192,0
DA:194,0
DA:195,0
DA:197,0
DA:198,0
DA:199,0
DA:200,0
DA:202,0
DA:203,0
DA:204,0
DA:205,0
DA:206,0
DA:207,0
DA:208,0
DA:210,0
DA:213,0
DA:215,0
DA:217,0
DA:218,0
DA:219,0
DA:221,0
DA:222,0
DA:223,0
DA:225,0
DA:226,0
DA:227,0
DA:228,0
DA:232,0
DA:233,0
DA:234,0
DA:244,0
DA:245,0
DA:246,0
DA:247,0
DA:248,0
DA:249,0
DA:251,0
DA:252,0
DA:253,0
DA:254,0
DA:256,0
DA:257,0
DA:258,0
DA:262,0
DA:263,0
DA:264,0
DA:269,0
DA:278,0
DA:280,0
DA:290,0
DA:292,0
DA:299,0
DA:308,0
DA:309,0
DA:310,0
DA:311,0
DA:312,0
DA:313,0
DA:315,0
DA:318,0
DA:321,0
DA:322,0
DA:323,0
DA:324,0
DA:325,0
DA:326,0
DA:327,0
DA:328,0
DA:331,0
DA:332,0
DA:333,0
DA:334,0
DA:335,0
DA:336,0
DA:338,0
DA:341,0
DA:342,0
DA:343,0
DA:344,0
DA:347,0
DA:350,0
DA:353,0
DA:354,0
DA:357,0
DA:358,0
DA:359,0
DA:362,0
DA:363,0
DA:364,0
DA:365,0
DA:366,0
DA:367,0
DA:369,0
DA:372,0
DA:373,0
DA:374,0
DA:377,0
DA:378,0
DA:379,0
DA:380,0
DA:383,0
DA:384,0
DA:387,0
DA:388,0
DA:389,0
DA:390,0
DA:392,0
DA:394,0
DA:395,0
DA:396,0
DA:397,0
DA:398,0
DA:401,0
DA:402,0
DA:405,0
DA:406,0
DA:408,0
DA:409,0
DA:410,0
DA:411,0
DA:413,0
DA:414,0
DA:417,0
DA:418,0
DA:419,0
DA:420,0
DA:421,0
DA:422,0
DA:424,0
DA:425,0
DA:428,0
DA:429,0
DA:430,0
DA:431,0
DA:433,0
DA:435,0
DA:436,0
DA:437,0
DA:438,0
DA:440,0
DA:443,0
DA:446,0
DA:447,0
DA:448,0
BRF:0
BRH:0
LF:270
LH:0
end_of_record
SF:/home/noah/src/pforge/crates/pforge-runtime/src/registry.rs
FN:108,_RNCNvMs0_NtCsbgyBtKT5UPh_14pforge_runtime8registryNtB7_15HandlerRegistry16get_input_schema0B9_
FN:113,_RNCNvMs0_NtCsbgyBtKT5UPh_14pforge_runtime8registryNtB7_15HandlerRegistry17get_output_schema0B9_
FN:72,_RINvMs0_NtCsbgyBtKT5UPh_14pforge_runtime8registryNtB6_15HandlerRegistry8registerNtNtNtB8_8handlers3cli10CliHandlerRNtNtCscmSb185pVu_5alloc6string6StringECsjNOQr3x479x_6pforge
FN:72,_RINvMs0_NtCsbgyBtKT5UPh_14pforge_runtime8registryNtB6_15HandlerRegistry8registerNtNtNtB8_8handlers4http11HttpHandlerRNtNtCscmSb185pVu_5alloc6string6StringECsjNOQr3x479x_6pforge
FN:44,_RNCNvXs_NtCsbgyBtKT5UPh_14pforge_runtime8registryINtB6_16HandlerEntryImplNtNtNtB8_8handlers3cli10CliHandlerENtB6_12HandlerEntry8dispatch0CsjNOQr3x479x_6pforge
FN:48,_RNCNvXs_NtCsbgyBtKT5UPh_14pforge_runtime8registryINtB6_16HandlerEntryImplNtNtNtB8_8handlers3cli10CliHandlerENtB6_12HandlerEntry8dispatchs_0CsjNOQr3x479x_6pforge
FN:44,_RNCNvXs_NtCsbgyBtKT5UPh_14pforge_runtime8registryINtB6_16HandlerEntryImplNtNtNtB8_8handlers4http11HttpHandlerENtB6_12HandlerEntry8dispatch0CsjNOQr3x479x_6pforge
FN:48,_RNCNvXs_NtCsbgyBtKT5UPh_14pforge_runtime8registryINtB6_16HandlerEntryImplNtNtNtB8_8handlers4http11HttpHandlerENtB6_12HandlerEntry8dispatchs_0CsjNOQr3x479x_6pforge
FN:28,_RNvMNtCsbgyBtKT5UPh_14pforge_runtime8registryINtB2_16HandlerEntryImplNtNtNtB4_8handlers3cli10CliHandlerE3newCsjNOQr3x479x_6pforge
FN:28,_RNvMNtCsbgyBtKT5UPh_14pforge_runtime8registryINtB2_16HandlerEntryImplNtNtNtB4_8handlers4http11HttpHandlerE3newCsjNOQr3x479x_6pforge
FN:54,_RNvXs_NtCsbgyBtKT5UPh_14pforge_runtime8registryINtB4_16HandlerEntryImplNtNtNtB6_8handlers3cli10CliHandlerENtB4_12HandlerEntry12input_schemaCsjNOQr3x479x_6pforge
FN:58,_RNvXs_NtCsbgyBtKT5UPh_14pforge_runtime8registryINtB4_16HandlerEntryImplNtNtNtB6_8handlers3cli10CliHandlerENtB4_12HandlerEntry13output_schemaCsjNOQr3x479x_6pforge
FN:41,_RNvXs_NtCsbgyBtKT5UPh_14pforge_runtime8registryINtB4_16HandlerEntryImplNtNtNtB6_8handlers3cli10CliHandlerENtB4_12HandlerEntry8dispatchCsjNOQr3x479x_6pforge
FN:54,_RNvXs_NtCsbgyBtKT5UPh_14pforge_runtime8registryINtB4_16HandlerEntryImplNtNtNtB6_8handlers4http11HttpHandlerENtB4_12HandlerEntry12input_schemaCsjNOQr3x479x_6pforge
FN:58,_RNvXs_NtCsbgyBtKT5UPh_14pforge_runtime8registryINtB4_16HandlerEntryImplNtNtNtB6_8handlers4http11HttpHandlerENtB4_12HandlerEntry13output_schemaCsjNOQr3x479x_6pforge
FN:41,_RNvXs_NtCsbgyBtKT5UPh_14pforge_runtime8registryINtB4_16HandlerEntryImplNtNtNtB6_8handlers4http11HttpHandlerENtB4_12HandlerEntry8dispatchCsjNOQr3x479x_6pforge
FN:83,_RNvMs0_NtCsbgyBtKT5UPh_14pforge_runtime8registryNtB5_15HandlerRegistry11has_handler
FN:107,_RNvMs0_NtCsbgyBtKT5UPh_14pforge_runtime8registryNtB5_15HandlerRegistry16get_input_schema
FN:112,_RNvMs0_NtCsbgyBtKT5UPh_14pforge_runtime8registryNtB5_15HandlerRegistry17get_output_schema
FN:97,_RNvMs0_NtCsbgyBtKT5UPh_14pforge_runtime8registryNtB5_15HandlerRegistry3len
FN:65,_RNvMs0_NtCsbgyBtKT5UPh_14pforge_runtime8registryNtB5_15HandlerRegistry3new
FN:102,_RNvMs0_NtCsbgyBtKT5UPh_14pforge_runtime8registryNtB5_15HandlerRegistry8is_empty
FN:118,_RNvXs1_NtCsbgyBtKT5UPh_14pforge_runtime8registryNtB5_15HandlerRegistryNtNtCs5GmCzIpY9Qj_4core7default7Default7default
FN:72,_RINvMs0_NtCs5tBpiHiFbgs_14pforge_runtime8registryNtB6_15HandlerRegistry8registerppEB8_
FN:108,_RNCNvMs0_NtCs5tBpiHiFbgs_14pforge_runtime8registryNtB7_15HandlerRegistry16get_input_schema0B9_
FN:113,_RNCNvMs0_NtCs5tBpiHiFbgs_14pforge_runtime8registryNtB7_15HandlerRegistry17get_output_schema0B9_
FN:89,_RNCNvMs0_NtCs5tBpiHiFbgs_14pforge_runtime8registryNtB7_15HandlerRegistry8dispatch0B9_
FN:44,_RNCNvXININtCs5tBpiHiFbgs_14pforge_runtime8registrys_0pEINtB7_16HandlerEntryImplpENtB7_12HandlerEntry8dispatch0B9_
FN:48,_RNCNvXININtCs5tBpiHiFbgs_14pforge_runtime8registrys_0pEINtB7_16HandlerEntryImplpENtB7_12HandlerEntry8dispatchs_0B9_
FN:28,_RNvMNtCs5tBpiHiFbgs_14pforge_runtime8registryINtB2_16HandlerEntryImplpE3newB4_
FN:83,_RNvMs0_NtCs5tBpiHiFbgs_14pforge_runtime8registryNtB5_15HandlerRegistry11has_handler
FN:107,_RNvMs0_NtCs5tBpiHiFbgs_14pforge_runtime8registryNtB5_15HandlerRegistry16get_input_schema
FN:112,_RNvMs0_NtCs5tBpiHiFbgs_14pforge_runtime8registryNtB5_15HandlerRegistry17get_output_schema
FN:97,_RNvMs0_NtCs5tBpiHiFbgs_14pforge_runtime8registryNtB5_15HandlerRegistry3len
FN:65,_RNvMs0_NtCs5tBpiHiFbgs_14pforge_runtime8registryNtB5_15HandlerRegistry3new
FN:89,_RNvMs0_NtCs5tBpiHiFbgs_14pforge_runtime8registryNtB5_15HandlerRegistry8dispatch
FN:102,_RNvMs0_NtCs5tBpiHiFbgs_14pforge_runtime8registryNtB5_15HandlerRegistry8is_empty
FN:54,_RNvXININtCs5tBpiHiFbgs_14pforge_runtime8registrys_0pEINtB5_16HandlerEntryImplpENtB5_12HandlerEntry12input_schemaB7_
FN:58,_RNvXININtCs5tBpiHiFbgs_14pforge_runtime8registrys_0pEINtB5_16HandlerEntryImplpENtB5_12HandlerEntry13output_schemaB7_
FN:41,_RNvXININtCs5tBpiHiFbgs_14pforge_runtime8registrys_0pEINtB5_16HandlerEntryImplpENtB5_12HandlerEntry8dispatchB7_
FN:118,_RNvXs1_NtCs5tBpiHiFbgs_14pforge_runtime8registryNtB5_15HandlerRegistryNtNtCs5GmCzIpY9Qj_4core7default7Default7default
FNDA:0,_RNCNvMs0_NtCsbgyBtKT5UPh_14pforge_runtime8registryNtB7_15HandlerRegistry16get_input_schema0B9_
FNDA:0,_RNCNvMs0_NtCsbgyBtKT5UPh_14pforge_runtime8registryNtB7_15HandlerRegistry17get_output_schema0B9_
FNDA:0,_RINvMs0_NtCsbgyBtKT5UPh_14pforge_runtime8registryNtB6_15HandlerRegistry8registerNtNtNtB8_8handlers3cli10CliHandlerRNtNtCscmSb185pVu_5alloc6string6StringECsjNOQr3x479x_6pforge
FNDA:0,_RINvMs0_NtCsbgyBtKT5UPh_14pforge_runtime8registryNtB6_15HandlerRegistry8registerNtNtNtB8_8handlers4http11HttpHandlerRNtNtCscmSb185pVu_5alloc6string6StringECsjNOQr3x479x_6pforge
FNDA:0,_RNCNvXs_NtCsbgyBtKT5UPh_14pforge_runtime8registryINtB6_16HandlerEntryImplNtNtNtB8_8handlers3cli10CliHandlerENtB6_12HandlerEntry8dispatch0CsjNOQr3x479x_6pforge
FNDA:0,_RNCNvXs_NtCsbgyBtKT5UPh_14pforge_runtime8registryINtB6_16HandlerEntryImplNtNtNtB8_8handlers3cli10CliHandlerENtB6_12HandlerEntry8dispatchs_0CsjNOQr3x479x_6pforge
FNDA:0,_RNCNvXs_NtCsbgyBtKT5UPh_14pforge_runtime8registryINtB6_16HandlerEntryImplNtNtNtB8_8handlers4http11HttpHandlerENtB6_12HandlerEntry8dispatch0CsjNOQr3x479x_6pforge
FNDA:0,_RNCNvXs_NtCsbgyBtKT5UPh_14pforge_runtime8registryINtB6_16HandlerEntryImplNtNtNtB8_8handlers4http11HttpHandlerENtB6_12HandlerEntry8dispatchs_0CsjNOQr3x479x_6pforge
FNDA:0,_RNvMNtCsbgyBtKT5UPh_14pforge_runtime8registryINtB2_16HandlerEntryImplNtNtNtB4_8handlers3cli10CliHandlerE3newCsjNOQr3x479x_6pforge
FNDA:0,_RNvMNtCsbgyBtKT5UPh_14pforge_runtime8registryINtB2_16HandlerEntryImplNtNtNtB4_8handlers4http11HttpHandlerE3newCsjNOQr3x479x_6pforge
FNDA:0,_RNvXs_NtCsbgyBtKT5UPh_14pforge_runtime8registryINtB4_16HandlerEntryImplNtNtNtB6_8handlers3cli10CliHandlerENtB4_12HandlerEntry12input_schemaCsjNOQr3x479x_6pforge
FNDA:0,_RNvXs_NtCsbgyBtKT5UPh_14pforge_runtime8registryINtB4_16HandlerEntryImplNtNtNtB6_8handlers3cli10CliHandlerENtB4_12HandlerEntry13output_schemaCsjNOQr3x479x_6pforge
FNDA:0,_RNvXs_NtCsbgyBtKT5UPh_14pforge_runtime8registryINtB4_16HandlerEntryImplNtNtNtB6_8handlers3cli10CliHandlerENtB4_12HandlerEntry8dispatchCsjNOQr3x479x_6pforge
FNDA:0,_RNvXs_NtCsbgyBtKT5UPh_14pforge_runtime8registryINtB4_16HandlerEntryImplNtNtNtB6_8handlers4http11HttpHandlerENtB4_12HandlerEntry12input_schemaCsjNOQr3x479x_6pforge
FNDA:0,_RNvXs_NtCsbgyBtKT5UPh_14pforge_runtime8registryINtB4_16HandlerEntryImplNtNtNtB6_8handlers4http11HttpHandlerENtB4_12HandlerEntry13output_schemaCsjNOQr3x479x_6pforge
FNDA:0,_RNvXs_NtCsbgyBtKT5UPh_14pforge_runtime8registryINtB4_16HandlerEntryImplNtNtNtB6_8handlers4http11HttpHandlerENtB4_12HandlerEntry8dispatchCsjNOQr3x479x_6pforge
FNDA:0,_RNvMs0_NtCsbgyBtKT5UPh_14pforge_runtime8registryNtB5_15HandlerRegistry11has_handler
FNDA:0,_RNvMs0_NtCsbgyBtKT5UPh_14pforge_runtime8registryNtB5_15HandlerRegistry16get_input_schema
FNDA:0,_RNvMs0_NtCsbgyBtKT5UPh_14pforge_runtime8registryNtB5_15HandlerRegistry17get_output_schema
FNDA:0,_RNvMs0_NtCsbgyBtKT5UPh_14pforge_runtime8registryNtB5_15HandlerRegistry3len
FNDA:0,_RNvMs0_NtCsbgyBtKT5UPh_14pforge_runtime8registryNtB5_15HandlerRegistry3new
FNDA:0,_RNvMs0_NtCsbgyBtKT5UPh_14pforge_runtime8registryNtB5_15HandlerRegistry8is_empty
FNDA:0,_RNvXs1_NtCsbgyBtKT5UPh_14pforge_runtime8registryNtB5_15HandlerRegistryNtNtCs5GmCzIpY9Qj_4core7default7Default7default
FNDA:0,_RINvMs0_NtCs5tBpiHiFbgs_14pforge_runtime8registryNtB6_15HandlerRegistry8registerppEB8_
FNDA:0,_RNCNvMs0_NtCs5tBpiHiFbgs_14pforge_runtime8registryNtB7_15HandlerRegistry16get_input_schema0B9_
FNDA:0,_RNCNvMs0_NtCs5tBpiHiFbgs_14pforge_runtime8registryNtB7_15HandlerRegistry17get_output_schema0B9_
FNDA:0,_RNCNvMs0_NtCs5tBpiHiFbgs_14pforge_runtime8registryNtB7_15HandlerRegistry8dispatch0B9_
FNDA:0,_RNCNvXININtCs5tBpiHiFbgs_14pforge_runtime8registrys_0pEINtB7_16HandlerEntryImplpENtB7_12HandlerEntry8dispatch0B9_
FNDA:0,_RNCNvXININtCs5tBpiHiFbgs_14pforge_runtime8registrys_0pEINtB7_16HandlerEntryImplpENtB7_12HandlerEntry8dispatchs_0B9_
FNDA:0,_RNvMNtCs5tBpiHiFbgs_14pforge_runtime8registryINtB2_16HandlerEntryImplpE3newB4_
FNDA:0,_RNvMs0_NtCs5tBpiHiFbgs_14pforge_runtime8registryNtB5_15HandlerRegistry11has_handler
FNDA:0,_RNvMs0_NtCs5tBpiHiFbgs_14pforge_runtime8registryNtB5_15HandlerRegistry16get_input_schema
FNDA:0,_RNvMs0_NtCs5tBpiHiFbgs_14pforge_runtime8registryNtB5_15HandlerRegistry17get_output_schema
FNDA:0,_RNvMs0_NtCs5tBpiHiFbgs_14pforge_runtime8registryNtB5_15HandlerRegistry3len
FNDA:0,_RNvMs0_NtCs5tBpiHiFbgs_14pforge_runtime8registryNtB5_15HandlerRegistry3new
FNDA:0,_RNvMs0_NtCs5tBpiHiFbgs_14pforge_runtime8registryNtB5_15HandlerRegistry8dispatch
FNDA:0,_RNvMs0_NtCs5tBpiHiFbgs_14pforge_runtime8registryNtB5_15HandlerRegistry8is_empty
FNDA:0,_RNvXININtCs5tBpiHiFbgs_14pforge_runtime8registrys_0pEINtB5_16HandlerEntryImplpENtB5_12HandlerEntry12input_schemaB7_
FNDA:0,_RNvXININtCs5tBpiHiFbgs_14pforge_runtime8registrys_0pEINtB5_16HandlerEntryImplpENtB5_12HandlerEntry13output_schemaB7_
FNDA:0,_RNvXININtCs5tBpiHiFbgs_14pforge_runtime8registrys_0pEINtB5_16HandlerEntryImplpENtB5_12HandlerEntry8dispatchB7_
FNDA:0,_RNvXs1_NtCs5tBpiHiFbgs_14pforge_runtime8registryNtB5_15HandlerRegistryNtNtCs5GmCzIpY9Qj_4core7default7Default7default
FNF:18
FNH:0
DA:28,0
DA:29,0
DA:30,0
DA:31,0
DA:32,0
DA:41,0
DA:42,0
DA:43,0
DA:44,0
DA:47,0
DA:48,0
DA:49,0
DA:50,0
DA:51,0
DA:52,0
DA:54,0
DA:55,0
DA:56,0
DA:58,0
DA:59,0
DA:60,0
DA:65,0
DA:66,0
DA:67,0
DA:68,0
DA:69,0
DA:72,0
DA:73,0
DA:74,0
DA:75,0
DA:76,0
DA:78,0
DA:79,0
DA:80,0
DA:83,0
DA:84,0
DA:85,0
DA:89,0
DA:90,0
DA:91,0
DA:92,0
DA:94,0
DA:97,0
DA:98,0
DA:99,0
DA:102,0
DA:103,0
DA:104,0
DA:107,0
DA:108,0
DA:109,0
DA:112,0
DA:113,0
DA:114,0
DA:118,0
DA:119,0
DA:120,0
BRF:0
BRH:0
LF:62
LH:0
end_of_record
SF:/home/noah/src/pforge/crates/pforge-runtime/src/resource.rs
FN:184,_RNvMNtCsbgyBtKT5UPh_14pforge_runtime8resourceNtB2_15ResourceManager14list_templates
FN:135,_RNvMNtCsbgyBtKT5UPh_14pforge_runtime8resourceNtB2_15ResourceManager20compile_uri_template
FN:40,_RNvMNtCsbgyBtKT5UPh_14pforge_runtime8resourceNtB2_15ResourceManager3new
FN:85,_RNvMNtCsbgyBtKT5UPh_14pforge_runtime8resourceNtB2_15ResourceManager4read
FN:101,_RNvMNtCsbgyBtKT5UPh_14pforge_runtime8resourceNtB2_15ResourceManager5write
FN:47,_RNvMNtCsbgyBtKT5UPh_14pforge_runtime8resourceNtB2_15ResourceManager8register
FN:66,_RNvMNtCsbgyBtKT5UPh_14pforge_runtime8resourceNtB2_15ResourceManager9match_uri
FN:117,_RNvMNtCsbgyBtKT5UPh_14pforge_runtime8resourceNtB2_15ResourceManager9subscribe
FN:190,_RNvXs_NtCsbgyBtKT5UPh_14pforge_runtime8resourceNtB4_15ResourceManagerNtNtCs5GmCzIpY9Qj_4core7default7Default7default
FN:185,_RNCNvMNtCsbgyBtKT5UPh_14pforge_runtime8resourceNtB4_15ResourceManager14list_templates0B6_
FN:178,_RNCNvMNtCsbgyBtKT5UPh_14pforge_runtime8resourceNtB4_15ResourceManager20compile_uri_template0B6_
FN:135,_RNvMNtCs5tBpiHiFbgs_14pforge_runtime8resourceNtB2_15ResourceManager20compile_uri_template
FN:40,_RNvMNtCs5tBpiHiFbgs_14pforge_runtime8resourceNtB2_15ResourceManager3new
FN:85,_RNvMNtCs5tBpiHiFbgs_14pforge_runtime8resourceNtB2_15ResourceManager4read
FN:101,_RNvMNtCs5tBpiHiFbgs_14pforge_runtime8resourceNtB2_15ResourceManager5write
FN:47,_RNvMNtCs5tBpiHiFbgs_14pforge_runtime8resourceNtB2_15ResourceManager8register
FN:66,_RNvMNtCs5tBpiHiFbgs_14pforge_runtime8resourceNtB2_15ResourceManager9match_uri
FN:88,_RNCNCNvMNtCs5tBpiHiFbgs_14pforge_runtime8resourceNtB6_15ResourceManager4read00B8_
FN:104,_RNCNCNvMNtCs5tBpiHiFbgs_14pforge_runtime8resourceNtB6_15ResourceManager5write00B8_
FN:178,_RNCNvMNtCs5tBpiHiFbgs_14pforge_runtime8resourceNtB4_15ResourceManager20compile_uri_template0B6_
FN:85,_RNCNvMNtCs5tBpiHiFbgs_14pforge_runtime8resourceNtB4_15ResourceManager4read0B6_
FN:101,_RNCNvMNtCs5tBpiHiFbgs_14pforge_runtime8resourceNtB4_15ResourceManager5write0B6_
FN:258,_RNCNvNtNtCs5tBpiHiFbgs_14pforge_runtime8resource5testss_18test_resource_read0B7_
FN:281,_RNCNvNtNtCs5tBpiHiFbgs_14pforge_runtime8resource5testss_35test_resource_unsupported_operation0B7_
FN:234,_RNCNvNtNtCs5tBpiHiFbgs_14pforge_runtime8resource5testss_39test_resource_registration_and_matching0B7_
FN:20,_RNvYNtNtNtCs5tBpiHiFbgs_14pforge_runtime8resource5tests19TestResourceHandlerNtB6_15ResourceHandler9subscribeB8_
FN:258,_RNvNtNtCs5tBpiHiFbgs_14pforge_runtime8resource5testss_18test_resource_read
FN:215,_RNvNtNtCs5tBpiHiFbgs_14pforge_runtime8resource5testss_29test_uri_template_compilation
FN:224,_RNvNtNtCs5tBpiHiFbgs_14pforge_runtime8resource5testss_33test_uri_template_multiple_params
FN:281,_RNvNtNtCs5tBpiHiFbgs_14pforge_runtime8resource5testss_35test_resource_unsupported_operation
FN:234,_RNvNtNtCs5tBpiHiFbgs_14pforge_runtime8resource5testss_39test_resource_registration_and_matching
FN:205,_RNvXNtNtCs5tBpiHiFbgs_14pforge_runtime8resource5testsNtB2_19TestResourceHandlerNtB4_15ResourceHandler4read
FN:209,_RNvXNtNtCs5tBpiHiFbgs_14pforge_runtime8resource5testsNtB2_19TestResourceHandlerNtB4_15ResourceHandler5write
FN:120,_RNCNCNvMNtCs5tBpiHiFbgs_14pforge_runtime8resourceNtB6_15ResourceManager9subscribe00B8_
FN:185,_RNCNvMNtCs5tBpiHiFbgs_14pforge_runtime8resourceNtB4_15ResourceManager14list_templates0B6_
FN:117,_RNCNvMNtCs5tBpiHiFbgs_14pforge_runtime8resourceNtB4_15ResourceManager9subscribe0B6_
FN:184,_RNvMNtCs5tBpiHiFbgs_14pforge_runtime8resourceNtB2_15ResourceManager14list_templates
FN:117,_RNvMNtCs5tBpiHiFbgs_14pforge_runtime8resourceNtB2_15ResourceManager9subscribe
FN:190,_RNvXs_NtCs5tBpiHiFbgs_14pforge_runtime8resourceNtB4_15ResourceManagerNtNtCs5GmCzIpY9Qj_4core7default7Default7default
FN:14,_RNvYpNtNtCs5tBpiHiFbgs_14pforge_runtime8resource15ResourceHandler5writeB7_
FNDA:0,_RNvMNtCsbgyBtKT5UPh_14pforge_runtime8resourceNtB2_15ResourceManager14list_templates
FNDA:0,_RNvMNtCsbgyBtKT5UPh_14pforge_runtime8resourceNtB2_15ResourceManager20compile_uri_template
FNDA:0,_RNvMNtCsbgyBtKT5UPh_14pforge_runtime8resourceNtB2_15ResourceManager3new
FNDA:0,_RNvMNtCsbgyBtKT5UPh_14pforge_runtime8resourceNtB2_15ResourceManager4read
FNDA:0,_RNvMNtCsbgyBtKT5UPh_14pforge_runtime8resourceNtB2_15ResourceManager5write
FNDA:0,_RNvMNtCsbgyBtKT5UPh_14pforge_runtime8resourceNtB2_15ResourceManager8register
FNDA:0,_RNvMNtCsbgyBtKT5UPh_14pforge_runtime8resourceNtB2_15ResourceManager9match_uri
FNDA:0,_RNvMNtCsbgyBtKT5UPh_14pforge_runtime8resourceNtB2_15ResourceManager9subscribe
FNDA:0,_RNvXs_NtCsbgyBtKT5UPh_14pforge_runtime8resourceNtB4_15ResourceManagerNtNtCs5GmCzIpY9Qj_4core7default7Default7default
FNDA:0,_RNCNvMNtCsbgyBtKT5UPh_14pforge_runtime8resourceNtB4_15ResourceManager14list_templates0B6_
FNDA:0,_RNCNvMNtCsbgyBtKT5UPh_14pforge_runtime8resourceNtB4_15ResourceManager20compile_uri_template0B6_
FNDA:0,_RNvMNtCs5tBpiHiFbgs_14pforge_runtime8resourceNtB2_15ResourceManager20compile_uri_template
FNDA:0,_RNvMNtCs5tBpiHiFbgs_14pforge_runtime8resourceNtB2_15ResourceManager3new
FNDA:0,_RNvMNtCs5tBpiHiFbgs_14pforge_runtime8resourceNtB2_15ResourceManager4read
FNDA:0,_RNvMNtCs5tBpiHiFbgs_14pforge_runtime8resourceNtB2_15ResourceManager5write
FNDA:0,_RNvMNtCs5tBpiHiFbgs_14pforge_runtime8resourceNtB2_15ResourceManager8register
FNDA:0,_RNvMNtCs5tBpiHiFbgs_14pforge_runtime8resourceNtB2_15ResourceManager9match_uri
FNDA:0,_RNCNCNvMNtCs5tBpiHiFbgs_14pforge_runtime8resourceNtB6_15ResourceManager4read00B8_
FNDA:0,_RNCNCNvMNtCs5tBpiHiFbgs_14pforge_runtime8resourceNtB6_15ResourceManager5write00B8_
FNDA:0,_RNCNvMNtCs5tBpiHiFbgs_14pforge_runtime8resourceNtB4_15ResourceManager20compile_uri_template0B6_
FNDA:0,_RNCNvMNtCs5tBpiHiFbgs_14pforge_runtime8resourceNtB4_15ResourceManager4read0B6_
FNDA:0,_RNCNvMNtCs5tBpiHiFbgs_14pforge_runtime8resourceNtB4_15ResourceManager5write0B6_
FNDA:0,_RNCNvNtNtCs5tBpiHiFbgs_14pforge_runtime8resource5testss_18test_resource_read0B7_
FNDA:0,_RNCNvNtNtCs5tBpiHiFbgs_14pforge_runtime8resource5testss_35test_resource_unsupported_operation0B7_
FNDA:0,_RNCNvNtNtCs5tBpiHiFbgs_14pforge_runtime8resource5testss_39test_resource_registration_and_matching0B7_
FNDA:0,_RNvYNtNtNtCs5tBpiHiFbgs_14pforge_runtime8resource5tests19TestResourceHandlerNtB6_15ResourceHandler9subscribeB8_
FNDA:0,_RNvNtNtCs5tBpiHiFbgs_14pforge_runtime8resource5testss_18test_resource_read
FNDA:0,_RNvNtNtCs5tBpiHiFbgs_14pforge_runtime8resource5testss_29test_uri_template_compilation
FNDA:0,_RNvNtNtCs5tBpiHiFbgs_14pforge_runtime8resource5testss_33test_uri_template_multiple_params
FNDA:0,_RNvNtNtCs5tBpiHiFbgs_14pforge_runtime8resource5testss_35test_resource_unsupported_operation
FNDA:0,_RNvNtNtCs5tBpiHiFbgs_14pforge_runtime8resource5testss_39test_resource_registration_and_matching
FNDA:0,_RNvXNtNtCs5tBpiHiFbgs_14pforge_runtime8resource5testsNtB2_19TestResourceHandlerNtB4_15ResourceHandler4read
FNDA:0,_RNvXNtNtCs5tBpiHiFbgs_14pforge_runtime8resource5testsNtB2_19TestResourceHandlerNtB4_15ResourceHandler5write
FNDA:0,_RNCNCNvMNtCs5tBpiHiFbgs_14pforge_runtime8resourceNtB6_15ResourceManager9subscribe00B8_
FNDA:0,_RNCNvMNtCs5tBpiHiFbgs_14pforge_runtime8resourceNtB4_15ResourceManager14list_templates0B6_
FNDA:0,_RNCNvMNtCs5tBpiHiFbgs_14pforge_runtime8resourceNtB4_15ResourceManager9subscribe0B6_
FNDA:0,_RNvMNtCs5tBpiHiFbgs_14pforge_runtime8resourceNtB2_15ResourceManager14list_templates
FNDA:0,_RNvMNtCs5tBpiHiFbgs_14pforge_runtime8resourceNtB2_15ResourceManager9subscribe
FNDA:0,_RNvXs_NtCs5tBpiHiFbgs_14pforge_runtime8resourceNtB4_15ResourceManagerNtNtCs5GmCzIpY9Qj_4core7default7Default7default
FNDA:0,_RNvYpNtNtCs5tBpiHiFbgs_14pforge_runtime8resource15ResourceHandler5writeB7_
FNF:29
FNH:0
DA:14,0
DA:17,0
DA:20,0
DA:23,0
DA:40,0
DA:41,0
DA:42,0
DA:43,0
DA:44,0
DA:47,0
DA:48,0
DA:49,0
DA:50,0
DA:51,0
DA:52,0
DA:54,0
DA:55,0
DA:56,0
DA:57,0
DA:58,0
DA:59,0
DA:60,0
DA:62,0
DA:63,0
DA:66,0
DA:67,0
DA:68,0
DA:69,0
DA:71,0
DA:72,0
DA:73,0
DA:74,0
DA:77,0
DA:78,0
DA:81,0
DA:82,0
DA:85,0
DA:86,0
DA:87,0
DA:88,0
DA:90,0
DA:91,0
DA:92,0
DA:93,0
DA:94,0
DA:95,0
DA:97,0
DA:98,0
DA:101,0
DA:102,0
DA:103,0
DA:104,0
DA:106,0
DA:107,0
DA:108,0
DA:109,0
DA:110,0
DA:111,0
DA:113,0
DA:114,0
DA:117,0
DA:118,0
DA:119,0
DA:120,0
DA:122,0
DA:123,0
DA:124,0
DA:125,0
DA:126,0
DA:127,0
DA:129,0
DA:130,0
DA:135,0
DA:136,0
DA:137,0
DA:138,0
DA:140,0
DA:141,0
DA:143,0
DA:144,0
DA:145,0
DA:146,0
DA:147,0
DA:148,0
DA:149,0
DA:152,0
DA:153,0
DA:154,0
DA:156,0
DA:161,0
DA:162,0
DA:163,0
DA:164,0
DA:165,0
DA:168,0
DA:169,0
DA:170,0
DA:171,0
DA:175,0
DA:177,0
DA:178,0
DA:180,0
DA:181,0
DA:184,0
DA:185,0
DA:186,0
DA:190,0
DA:191,0
DA:192,0
DA:205,0
DA:207,0
DA:209,0
DA:211,0
DA:215,0
DA:216,0
DA:217,0
DA:219,0
DA:220,0
DA:221,0
DA:224,0
DA:225,0
DA:226,0
DA:228,0
DA:229,0
DA:230,0
DA:231,0
DA:234,0
DA:235,0
DA:237,0
DA:238,0
DA:239,0
DA:240,0
DA:241,0
DA:242,0
DA:243,0
DA:244,0
DA:246,0
DA:247,0
DA:248,0
DA:250,0
DA:252,0
DA:253,0
DA:254,0
DA:255,0
DA:258,0
DA:259,0
DA:261,0
DA:262,0
DA:263,0
DA:264,0
DA:265,0
DA:266,0
DA:267,0
DA:268,0
DA:270,0
DA:271,0
DA:272,0
DA:274,0
DA:276,0
DA:277,0
DA:278,0
DA:281,0
DA:282,0
DA:284,0
DA:285,0
DA:286,0
DA:287,0
DA:288,0
DA:289,0
DA:290,0
DA:291,0
DA:293,0
DA:294,0
DA:295,0
DA:297,0
DA:299,0
DA:300,0
DA:301,0
DA:302,0
BRF:0
BRH:0
LF:193
LH:0
end_of_record
SF:/home/noah/src/pforge/crates/pforge-runtime/src/server.rs
FN:70,_RNCNCNvMNtCsbgyBtKT5UPh_14pforge_runtime6serverNtB6_9McpServer17register_handlers00CsjNOQr3x479x_6pforge
FN:124,_RNCNCNvMNtCsbgyBtKT5UPh_14pforge_runtime6serverNtB6_9McpServer3run00CsjNOQr3x479x_6pforge
FN:22,_RNCNvMNtCsbgyBtKT5UPh_14pforge_runtime6serverNtB4_9McpServer17register_handlers0CsjNOQr3x479x_6pforge
FN:109,_RNCNvMNtCsbgyBtKT5UPh_14pforge_runtime6serverNtB4_9McpServer3run0CsjNOQr3x479x_6pforge
FN:22,_RNvMNtCsbgyBtKT5UPh_14pforge_runtime6serverNtB2_9McpServer17register_handlers
FN:14,_RNvMNtCsbgyBtKT5UPh_14pforge_runtime6serverNtB2_9McpServer3new
FN:109,_RNvMNtCsbgyBtKT5UPh_14pforge_runtime6serverNtB2_9McpServer3run
FN:131,_RNvMNtCsbgyBtKT5UPh_14pforge_runtime6serverNtB2_9McpServer8registry
FN:70,_RNCNCNvMNtCs5tBpiHiFbgs_14pforge_runtime6serverNtB6_9McpServer17register_handlers00B8_
FN:124,_RNCNCNvMNtCs5tBpiHiFbgs_14pforge_runtime6serverNtB6_9McpServer3run00B8_
FN:22,_RNCNvMNtCs5tBpiHiFbgs_14pforge_runtime6serverNtB4_9McpServer17register_handlers0B6_
FN:109,_RNCNvMNtCs5tBpiHiFbgs_14pforge_runtime6serverNtB4_9McpServer3run0B6_
FN:22,_RNvMNtCs5tBpiHiFbgs_14pforge_runtime6serverNtB2_9McpServer17register_handlers
FN:14,_RNvMNtCs5tBpiHiFbgs_14pforge_runtime6serverNtB2_9McpServer3new
FN:109,_RNvMNtCs5tBpiHiFbgs_14pforge_runtime6serverNtB2_9McpServer3run
FN:131,_RNvMNtCs5tBpiHiFbgs_14pforge_runtime6serverNtB2_9McpServer8registry
FNDA:0,_RNCNCNvMNtCsbgyBtKT5UPh_14pforge_runtime6serverNtB6_9McpServer17register_handlers00CsjNOQr3x479x_6pforge
FNDA:0,_RNCNCNvMNtCsbgyBtKT5UPh_14pforge_runtime6serverNtB6_9McpServer3run00CsjNOQr3x479x_6pforge
FNDA:0,_RNCNvMNtCsbgyBtKT5UPh_14pforge_runtime6serverNtB4_9McpServer17register_handlers0CsjNOQr3x479x_6pforge
FNDA:0,_RNCNvMNtCsbgyBtKT5UPh_14pforge_runtime6serverNtB4_9McpServer3run0CsjNOQr3x479x_6pforge
FNDA:0,_RNvMNtCsbgyBtKT5UPh_14pforge_runtime6serverNtB2_9McpServer17register_handlers
FNDA:0,_RNvMNtCsbgyBtKT5UPh_14pforge_runtime6serverNtB2_9McpServer3new
FNDA:0,_RNvMNtCsbgyBtKT5UPh_14pforge_runtime6serverNtB2_9McpServer3run
FNDA:0,_RNvMNtCsbgyBtKT5UPh_14pforge_runtime6serverNtB2_9McpServer8registry
FNDA:0,_RNCNCNvMNtCs5tBpiHiFbgs_14pforge_runtime6serverNtB6_9McpServer17register_handlers00B8_
FNDA:0,_RNCNCNvMNtCs5tBpiHiFbgs_14pforge_runtime6serverNtB6_9McpServer3run00B8_
FNDA:0,_RNCNvMNtCs5tBpiHiFbgs_14pforge_runtime6serverNtB4_9McpServer17register_handlers0B6_
FNDA:0,_RNCNvMNtCs5tBpiHiFbgs_14pforge_runtime6serverNtB4_9McpServer3run0B6_
FNDA:0,_RNvMNtCs5tBpiHiFbgs_14pforge_runtime6serverNtB2_9McpServer17register_handlers
FNDA:0,_RNvMNtCs5tBpiHiFbgs_14pforge_runtime6serverNtB2_9McpServer3new
FNDA:0,_RNvMNtCs5tBpiHiFbgs_14pforge_runtime6serverNtB2_9McpServer3run
FNDA:0,_RNvMNtCs5tBpiHiFbgs_14pforge_runtime6serverNtB2_9McpServer8registry
FNF:8
FNH:0
DA:14,0
DA:15,0
DA:16,0
DA:17,0
DA:18,0
DA:19,0
DA:22,0
DA:23,0
DA:25,0
DA:26,0
DA:27,0
DA:28,0
DA:29,0
DA:30,0
DA:32,0
DA:33,0
DA:34,0
DA:35,0
DA:36,0
DA:37,0
DA:41,0
DA:42,0
DA:43,0
DA:44,0
DA:45,0
DA:46,0
DA:47,0
DA:49,0
DA:50,0
DA:53,0
DA:54,0
DA:55,0
DA:56,0
DA:57,0
DA:62,0
DA:63,0
DA:64,0
DA:65,0
DA:66,0
DA:67,0
DA:70,0
DA:71,0
DA:72,0
DA:73,0
DA:74,0
DA:76,0
DA:77,0
DA:78,0
DA:79,0
DA:80,0
DA:82,0
DA:83,0
DA:84,0
DA:85,0
DA:86,0
DA:88,0
DA:90,0
DA:91,0
DA:92,0
DA:93,0
DA:94,0
DA:96,0
DA:97,0
DA:99,0
DA:100,0
DA:101,0
DA:105,0
DA:106,0
DA:109,0
DA:110,0
DA:111,0
DA:112,0
DA:115,0
DA:119,0
DA:120,0
DA:121,0
DA:124,0
DA:126,0
DA:127,0
DA:128,0
DA:131,0
DA:132,0
DA:133,0
BRF:0
BRH:0
LF:87
LH:0
end_of_record
SF:/home/noah/src/pforge/crates/pforge-runtime/src/state.rs
FN:27,_RNvMNtCsbgyBtKT5UPh_14pforge_runtime5stateNtB2_16SledStateManager3new
FN:79,_RNvMs_NtCsbgyBtKT5UPh_14pforge_runtime5stateNtB4_18MemoryStateManager3new
FN:87,_RNvXs0_NtCsbgyBtKT5UPh_14pforge_runtime5stateNtB5_18MemoryStateManagerNtNtCs5GmCzIpY9Qj_4core7default7Default7default
FN:35,_RNvXs1_NtCsbgyBtKT5UPh_14pforge_runtime5stateNtB5_16SledStateManagerNtB5_12StateManager3get
FN:44,_RNvXs1_NtCsbgyBtKT5UPh_14pforge_runtime5stateNtB5_16SledStateManagerNtB5_12StateManager3set
FN:57,_RNvXs1_NtCsbgyBtKT5UPh_14pforge_runtime5stateNtB5_16SledStateManagerNtB5_12StateManager6delete
FN:64,_RNvXs1_NtCsbgyBtKT5UPh_14pforge_runtime5stateNtB5_16SledStateManagerNtB5_12StateManager6exists
FN:94,_RNvXs2_NtCsbgyBtKT5UPh_14pforge_runtime5stateNtB5_18MemoryStateManagerNtB5_12StateManager3get
FN:98,_RNvXs2_NtCsbgyBtKT5UPh_14pforge_runtime5stateNtB5_18MemoryStateManagerNtB5_12StateManager3set
FN:104,_RNvXs2_NtCsbgyBtKT5UPh_14pforge_runtime5stateNtB5_18MemoryStateManagerNtB5_12StateManager6delete
FN:109,_RNvXs2_NtCsbgyBtKT5UPh_14pforge_runtime5stateNtB5_18MemoryStateManagerNtB5_12StateManager6exists
FN:39,_RNCNCNvXs1_NtCsbgyBtKT5UPh_14pforge_runtime5stateNtB9_16SledStateManagerNtB9_12StateManager3get00Bb_
FN:41,_RNCNCNvXs1_NtCsbgyBtKT5UPh_14pforge_runtime5stateNtB9_16SledStateManagerNtB9_12StateManager3get0s_0Bb_
FN:47,_RNCNCNvXs1_NtCsbgyBtKT5UPh_14pforge_runtime5stateNtB9_16SledStateManagerNtB9_12StateManager3set00Bb_
FN:51,_RNCNCNvXs1_NtCsbgyBtKT5UPh_14pforge_runtime5stateNtB9_16SledStateManagerNtB9_12StateManager3set0s_0Bb_
FN:60,_RNCNCNvXs1_NtCsbgyBtKT5UPh_14pforge_runtime5stateNtB9_16SledStateManagerNtB9_12StateManager6delete00Bb_
FN:68,_RNCNCNvXs1_NtCsbgyBtKT5UPh_14pforge_runtime5stateNtB9_16SledStateManagerNtB9_12StateManager6exists00Bb_
FN:95,_RNCNCNvXs2_NtCsbgyBtKT5UPh_14pforge_runtime5stateNtB9_18MemoryStateManagerNtB9_12StateManager3get00Bb_
FN:28,_RNCNvMNtCsbgyBtKT5UPh_14pforge_runtime5stateNtB4_16SledStateManager3new0B6_
FN:39,_RNCNCNvXs1_NtCs5tBpiHiFbgs_14pforge_runtime5stateNtB9_16SledStateManagerNtB9_12StateManager3get00Bb_
FN:41,_RNCNCNvXs1_NtCs5tBpiHiFbgs_14pforge_runtime5stateNtB9_16SledStateManagerNtB9_12StateManager3get0s_0Bb_
FN:47,_RNCNCNvXs1_NtCs5tBpiHiFbgs_14pforge_runtime5stateNtB9_16SledStateManagerNtB9_12StateManager3set00Bb_
FN:51,_RNCNCNvXs1_NtCs5tBpiHiFbgs_14pforge_runtime5stateNtB9_16SledStateManagerNtB9_12StateManager3set0s_0Bb_
FN:95,_RNCNCNvXs2_NtCs5tBpiHiFbgs_14pforge_runtime5stateNtB9_18MemoryStateManagerNtB9_12StateManager3get00Bb_
FN:28,_RNCNvMNtCs5tBpiHiFbgs_14pforge_runtime5stateNtB4_16SledStateManager3new0B6_
FN:27,_RNvMNtCs5tBpiHiFbgs_14pforge_runtime5stateNtB2_16SledStateManager3new
FN:79,_RNvMs_NtCs5tBpiHiFbgs_14pforge_runtime5stateNtB4_18MemoryStateManager3new
FN:35,_RNvXs1_NtCs5tBpiHiFbgs_14pforge_runtime5stateNtB5_16SledStateManagerNtB5_12StateManager3get
FN:44,_RNvXs1_NtCs5tBpiHiFbgs_14pforge_runtime5stateNtB5_16SledStateManagerNtB5_12StateManager3set
FN:94,_RNvXs2_NtCs5tBpiHiFbgs_14pforge_runtime5stateNtB5_18MemoryStateManagerNtB5_12StateManager3get
FN:98,_RNvXs2_NtCs5tBpiHiFbgs_14pforge_runtime5stateNtB5_18MemoryStateManagerNtB5_12StateManager3set
FN:104,_RNvXs2_NtCs5tBpiHiFbgs_14pforge_runtime5stateNtB5_18MemoryStateManagerNtB5_12StateManager6delete
FN:109,_RNvXs2_NtCs5tBpiHiFbgs_14pforge_runtime5stateNtB5_18MemoryStateManagerNtB5_12StateManager6exists
FN:60,_RNCNCNvXs1_NtCs5tBpiHiFbgs_14pforge_runtime5stateNtB9_16SledStateManagerNtB9_12StateManager6delete00Bb_
FN:68,_RNCNCNvXs1_NtCs5tBpiHiFbgs_14pforge_runtime5stateNtB9_16SledStateManagerNtB9_12StateManager6exists00Bb_
FN:87,_RNvXs0_NtCs5tBpiHiFbgs_14pforge_runtime5stateNtB5_18MemoryStateManagerNtNtCs5GmCzIpY9Qj_4core7default7Default7default
FN:57,_RNvXs1_NtCs5tBpiHiFbgs_14pforge_runtime5stateNtB5_16SledStateManagerNtB5_12StateManager6delete
FN:64,_RNvXs1_NtCs5tBpiHiFbgs_14pforge_runtime5stateNtB5_16SledStateManagerNtB5_12StateManager6exists
FN:138,_RNvNtNtCs5tBpiHiFbgs_14pforge_runtime5state5testss_21test_sled_state_basic
FN:120,_RNvNtNtCs5tBpiHiFbgs_14pforge_runtime5state5testss_23test_memory_state_basic
FN:138,_RNCNvNtNtCs5tBpiHiFbgs_14pforge_runtime5state5testss_21test_sled_state_basic0B7_
FN:120,_RNCNvNtNtCs5tBpiHiFbgs_14pforge_runtime5state5testss_23test_memory_state_basic0B7_
FNDA:0,_RNvMNtCsbgyBtKT5UPh_14pforge_runtime5stateNtB2_16SledStateManager3new
FNDA:0,_RNvMs_NtCsbgyBtKT5UPh_14pforge_runtime5stateNtB4_18MemoryStateManager3new
FNDA:0,_RNvXs0_NtCsbgyBtKT5UPh_14pforge_runtime5stateNtB5_18MemoryStateManagerNtNtCs5GmCzIpY9Qj_4core7default7Default7default
FNDA:0,_RNvXs1_NtCsbgyBtKT5UPh_14pforge_runtime5stateNtB5_16SledStateManagerNtB5_12StateManager3get
FNDA:0,_RNvXs1_NtCsbgyBtKT5UPh_14pforge_runtime5stateNtB5_16SledStateManagerNtB5_12StateManager3set
FNDA:0,_RNvXs1_NtCsbgyBtKT5UPh_14pforge_runtime5stateNtB5_16SledStateManagerNtB5_12StateManager6delete
FNDA:0,_RNvXs1_NtCsbgyBtKT5UPh_14pforge_runtime5stateNtB5_16SledStateManagerNtB5_12StateManager6exists
FNDA:0,_RNvXs2_NtCsbgyBtKT5UPh_14pforge_runtime5stateNtB5_18MemoryStateManagerNtB5_12StateManager3get
FNDA:0,_RNvXs2_NtCsbgyBtKT5UPh_14pforge_runtime5stateNtB5_18MemoryStateManagerNtB5_12StateManager3set
FNDA:0,_RNvXs2_NtCsbgyBtKT5UPh_14pforge_runtime5stateNtB5_18MemoryStateManagerNtB5_12StateManager6delete
FNDA:0,_RNvXs2_NtCsbgyBtKT5UPh_14pforge_runtime5stateNtB5_18MemoryStateManagerNtB5_12StateManager6exists
FNDA:0,_RNCNCNvXs1_NtCsbgyBtKT5UPh_14pforge_runtime5stateNtB9_16SledStateManagerNtB9_12StateManager3get00Bb_
FNDA:0,_RNCNCNvXs1_NtCsbgyBtKT5UPh_14pforge_runtime5stateNtB9_16SledStateManagerNtB9_12StateManager3get0s_0Bb_
FNDA:0,_RNCNCNvXs1_NtCsbgyBtKT5UPh_14pforge_runtime5stateNtB9_16SledStateManagerNtB9_12StateManager3set00Bb_
FNDA:0,_RNCNCNvXs1_NtCsbgyBtKT5UPh_14pforge_runtime5stateNtB9_16SledStateManagerNtB9_12StateManager3set0s_0Bb_
FNDA:0,_RNCNCNvXs1_NtCsbgyBtKT5UPh_14pforge_runtime5stateNtB9_16SledStateManagerNtB9_12StateManager6delete00Bb_
FNDA:0,_RNCNCNvXs1_NtCsbgyBtKT5UPh_14pforge_runtime5stateNtB9_16SledStateManagerNtB9_12StateManager6exists00Bb_
FNDA:0,_RNCNCNvXs2_NtCsbgyBtKT5UPh_14pforge_runtime5stateNtB9_18MemoryStateManagerNtB9_12StateManager3get00Bb_
FNDA:0,_RNCNvMNtCsbgyBtKT5UPh_14pforge_runtime5stateNtB4_16SledStateManager3new0B6_
FNDA:0,_RNCNCNvXs1_NtCs5tBpiHiFbgs_14pforge_runtime5stateNtB9_16SledStateManagerNtB9_12StateManager3get00Bb_
FNDA:0,_RNCNCNvXs1_NtCs5tBpiHiFbgs_14pforge_runtime5stateNtB9_16SledStateManagerNtB9_12StateManager3get0s_0Bb_
FNDA:0,_RNCNCNvXs1_NtCs5tBpiHiFbgs_14pforge_runtime5stateNtB9_16SledStateManagerNtB9_12StateManager3set00Bb_
FNDA:0,_RNCNCNvXs1_NtCs5tBpiHiFbgs_14pforge_runtime5stateNtB9_16SledStateManagerNtB9_12StateManager3set0s_0Bb_
FNDA:0,_RNCNCNvXs2_NtCs5tBpiHiFbgs_14pforge_runtime5stateNtB9_18MemoryStateManagerNtB9_12StateManager3get00Bb_
FNDA:0,_RNCNvMNtCs5tBpiHiFbgs_14pforge_runtime5stateNtB4_16SledStateManager3new0B6_
FNDA:0,_RNvMNtCs5tBpiHiFbgs_14pforge_runtime5stateNtB2_16SledStateManager3new
FNDA:0,_RNvMs_NtCs5tBpiHiFbgs_14pforge_runtime5stateNtB4_18MemoryStateManager3new
FNDA:0,_RNvXs1_NtCs5tBpiHiFbgs_14pforge_runtime5stateNtB5_16SledStateManagerNtB5_12StateManager3get
FNDA:0,_RNvXs1_NtCs5tBpiHiFbgs_14pforge_runtime5stateNtB5_16SledStateManagerNtB5_12StateManager3set
FNDA:0,_RNvXs2_NtCs5tBpiHiFbgs_14pforge_runtime5stateNtB5_18MemoryStateManagerNtB5_12StateManager3get
FNDA:0,_RNvXs2_NtCs5tBpiHiFbgs_14pforge_runtime5stateNtB5_18MemoryStateManagerNtB5_12StateManager3set
FNDA:0,_RNvXs2_NtCs5tBpiHiFbgs_14pforge_runtime5stateNtB5_18MemoryStateManagerNtB5_12StateManager6delete
FNDA:0,_RNvXs2_NtCs5tBpiHiFbgs_14pforge_runtime5stateNtB5_18MemoryStateManagerNtB5_12StateManager6exists
FNDA:0,_RNCNCNvXs1_NtCs5tBpiHiFbgs_14pforge_runtime5stateNtB9_16SledStateManagerNtB9_12StateManager6delete00Bb_
FNDA:0,_RNCNCNvXs1_NtCs5tBpiHiFbgs_14pforge_runtime5stateNtB9_16SledStateManagerNtB9_12StateManager6exists00Bb_
FNDA:0,_RNvXs0_NtCs5tBpiHiFbgs_14pforge_runtime5stateNtB5_18MemoryStateManagerNtNtCs5GmCzIpY9Qj_4core7default7Default7default
FNDA:0,_RNvXs1_NtCs5tBpiHiFbgs_14pforge_runtime5stateNtB5_16SledStateManagerNtB5_12StateManager6delete
FNDA:0,_RNvXs1_NtCs5tBpiHiFbgs_14pforge_runtime5stateNtB5_16SledStateManagerNtB5_12StateManager6exists
FNDA:0,_RNvNtNtCs5tBpiHiFbgs_14pforge_runtime5state5testss_21test_sled_state_basic
FNDA:0,_RNvNtNtCs5tBpiHiFbgs_14pforge_runtime5state5testss_23test_memory_state_basic
FNDA:0,_RNCNvNtNtCs5tBpiHiFbgs_14pforge_runtime5state5testss_21test_sled_state_basic0B7_
FNDA:0,_RNCNvNtNtCs5tBpiHiFbgs_14pforge_runtime5state5testss_23test_memory_state_basic0B7_
FNF:23
FNH:0
DA:27,0
DA:28,0
DA:29,0
DA:30,0
DA:35,0
DA:39,0
DA:41,0
DA:42,0
DA:44,0
DA:47,0
DA:51,0
DA:55,0
DA:57,0
DA:60,0
DA:62,0
DA:64,0
DA:68,0
DA:70,0
DA:79,0
DA:80,0
DA:81,0
DA:82,0
DA:83,0
DA:87,0
DA:88,0
DA:89,0
DA:94,0
DA:95,0
DA:96,0
DA:98,0
DA:102,0
DA:104,0
DA:107,0
DA:109,0
DA:111,0
DA:120,0
DA:121,0
DA:124,0
DA:125,0
DA:126,0
DA:129,0
DA:130,0
DA:133,0
DA:134,0
DA:135,0
DA:138,0
DA:139,0
DA:140,0
DA:143,0
DA:144,0
DA:145,0
DA:148,0
DA:149,0
DA:150,0
DA:151,0
DA:152,0
BRF:0
BRH:0
LF:61
LH:0
end_of_record
SF:/home/noah/src/pforge/crates/pforge-runtime/src/timeout.rs
FN:187,_RINvNtCsbgyBtKT5UPh_14pforge_runtime7timeout12with_timeoutNCNCNCNCNvCs4NrvKuwgNTo_11integrations_23test_retry_with_timeout0000EB14_
FN:153,_RINvNtCsbgyBtKT5UPh_14pforge_runtime7timeout17retry_with_policyNCNCNvCs4NrvKuwgNTo_11integrations_23test_retry_with_timeout00NCNCB11_00lEB15_
FN:190,_RNCINvNtCsbgyBtKT5UPh_14pforge_runtime7timeout12with_timeoutNCNCNCNCNvCs4NrvKuwgNTo_11integrations_23test_retry_with_timeout0000E0B16_
FN:160,_RNCINvNtCsbgyBtKT5UPh_14pforge_runtime7timeout17retry_with_policyNCNCNvCs4NrvKuwgNTo_11integrations_23test_retry_with_timeout00NCNCB13_00lE0B17_
FN:193,_RNCNCINvNtCsbgyBtKT5UPh_14pforge_runtime7timeout12with_timeoutNCNCNCNCNvCs4NrvKuwgNTo_11integrations_23test_retry_with_timeout0000E00B18_
FN:183,_RNCNCINvNtCsbgyBtKT5UPh_14pforge_runtime7timeout17retry_with_policyNCNCNvCs4NrvKuwgNTo_11integrations_23test_retry_with_timeout00NCNCB15_00lE00B19_
FN:17,_RNvMNtCsbgyBtKT5UPh_14pforge_runtime7timeoutNtB2_17TimeoutMiddleware11from_millis
FN:13,_RNvMNtCsbgyBtKT5UPh_14pforge_runtime7timeoutNtB2_17TimeoutMiddleware3new
FN:25,_RNvMNtCsbgyBtKT5UPh_14pforge_runtime7timeoutNtB2_17TimeoutMiddleware8duration
FN:21,_RNvMNtCsbgyBtKT5UPh_14pforge_runtime7timeoutNtB2_17TimeoutMiddleware9from_secs
FN:133,_RNvMs1_NtCsbgyBtKT5UPh_14pforge_runtime7timeoutNtB5_15RetryMiddleware17with_max_attempts
FN:129,_RNvMs1_NtCsbgyBtKT5UPh_14pforge_runtime7timeoutNtB5_15RetryMiddleware3new
FN:137,_RNvMs1_NtCsbgyBtKT5UPh_14pforge_runtime7timeoutNtB5_15RetryMiddleware6policy
FN:78,_RNvMs_NtCsbgyBtKT5UPh_14pforge_runtime7timeoutNtB4_11RetryPolicy11with_jitter
FN:101,_RNvMs_NtCsbgyBtKT5UPh_14pforge_runtime7timeoutNtB4_11RetryPolicy12is_retryable
FN:67,_RNvMs_NtCsbgyBtKT5UPh_14pforge_runtime7timeoutNtB4_11RetryPolicy12with_backoff
FN:73,_RNvMs_NtCsbgyBtKT5UPh_14pforge_runtime7timeoutNtB4_11RetryPolicy15with_multiplier
FN:84,_RNvMs_NtCsbgyBtKT5UPh_14pforge_runtime7timeoutNtB4_11RetryPolicy16backoff_duration
FN:57,_RNvMs_NtCsbgyBtKT5UPh_14pforge_runtime7timeoutNtB4_11RetryPolicy3new
FN:117,_RNvXs0_NtCsbgyBtKT5UPh_14pforge_runtime7timeoutNtB5_11RetryPolicyNtNtCs5GmCzIpY9Qj_4core7default7Default7default
FN:36,_RNvXs2_NtCsbgyBtKT5UPh_14pforge_runtime7timeoutNtB5_17TimeoutMiddlewareNtNtB7_10middleware10Middleware5after
FN:32,_RNvXs2_NtCsbgyBtKT5UPh_14pforge_runtime7timeoutNtB5_17TimeoutMiddlewareNtNtB7_10middleware10Middleware6before
FN:144,_RNvXs5_NtCsbgyBtKT5UPh_14pforge_runtime7timeoutNtB5_15RetryMiddlewareNtNtB7_10middleware10Middleware8on_error
FN:336,_RNCNCNCNCNvNtNtCs5tBpiHiFbgs_14pforge_runtime7timeout5testss_31test_combined_timeout_and_retry0000Bd_
FN:287,_RNCNCNCNvNtNtCs5tBpiHiFbgs_14pforge_runtime7timeout5testss_30test_retry_non_retryable_error000Bb_
FN:240,_RNCNCNCNvNtNtCs5tBpiHiFbgs_14pforge_runtime7timeout5testss_30test_retry_with_policy_success000Bb_
FN:333,_RNCNCNCNvNtNtCs5tBpiHiFbgs_14pforge_runtime7timeout5testss_31test_combined_timeout_and_retry000Bb_
FN:267,_RNCNCNCNvNtNtCs5tBpiHiFbgs_14pforge_runtime7timeout5testss_35test_retry_with_policy_max_attempts000Bb_
FN:300,_RNCNCNvNtNtCs5tBpiHiFbgs_14pforge_runtime7timeout5testss_25test_with_timeout_success00B9_
FN:312,_RNCNCNvNtNtCs5tBpiHiFbgs_14pforge_runtime7timeout5testss_26test_with_timeout_exceeded00B9_
FN:285,_RNCNCNvNtNtCs5tBpiHiFbgs_14pforge_runtime7timeout5testss_30test_retry_non_retryable_error00B9_
FN:238,_RNCNCNvNtNtCs5tBpiHiFbgs_14pforge_runtime7timeout5testss_30test_retry_with_policy_success00B9_
FN:331,_RNCNCNvNtNtCs5tBpiHiFbgs_14pforge_runtime7timeout5testss_31test_combined_timeout_and_retry00B9_
FN:265,_RNCNCNvNtNtCs5tBpiHiFbgs_14pforge_runtime7timeout5testss_35test_retry_with_policy_max_attempts00B9_
FN:299,_RNCNvNtNtCs5tBpiHiFbgs_14pforge_runtime7timeout5testss_25test_with_timeout_success0B7_
FN:311,_RNCNvNtNtCs5tBpiHiFbgs_14pforge_runtime7timeout5testss_26test_with_timeout_exceeded0B7_
FN:279,_RNCNvNtNtCs5tBpiHiFbgs_14pforge_runtime7timeout5testss_30test_retry_non_retryable_error0B7_
FN:230,_RNCNvNtNtCs5tBpiHiFbgs_14pforge_runtime7timeout5testss_30test_retry_with_policy_success0B7_
FN:323,_RNCNvNtNtCs5tBpiHiFbgs_14pforge_runtime7timeout5testss_31test_combined_timeout_and_retry0B7_
FN:257,_RNCNvNtNtCs5tBpiHiFbgs_14pforge_runtime7timeout5testss_35test_retry_with_policy_max_attempts0B7_
FN:78,_RNvMs_NtCs5tBpiHiFbgs_14pforge_runtime7timeoutNtB4_11RetryPolicy11with_jitter
FN:101,_RNvMs_NtCs5tBpiHiFbgs_14pforge_runtime7timeoutNtB4_11RetryPolicy12is_retryable
FN:67,_RNvMs_NtCs5tBpiHiFbgs_14pforge_runtime7timeoutNtB4_11RetryPolicy12with_backoff
FN:73,_RNvMs_NtCs5tBpiHiFbgs_14pforge_runtime7timeoutNtB4_11RetryPolicy15with_multiplier
FN:84,_RNvMs_NtCs5tBpiHiFbgs_14pforge_runtime7timeoutNtB4_11RetryPolicy16backoff_duration
FN:57,_RNvMs_NtCs5tBpiHiFbgs_14pforge_runtime7timeoutNtB4_11RetryPolicy3new
FN:17,_RNvMNtCs5tBpiHiFbgs_14pforge_runtime7timeoutNtB2_17TimeoutMiddleware11from_millis
FN:13,_RNvMNtCs5tBpiHiFbgs_14pforge_runtime7timeoutNtB2_17TimeoutMiddleware3new
FN:25,_RNvMNtCs5tBpiHiFbgs_14pforge_runtime7timeoutNtB2_17TimeoutMiddleware8duration
FN:21,_RNvMNtCs5tBpiHiFbgs_14pforge_runtime7timeoutNtB2_17TimeoutMiddleware9from_secs
FN:133,_RNvMs1_NtCs5tBpiHiFbgs_14pforge_runtime7timeoutNtB5_15RetryMiddleware17with_max_attempts
FN:129,_RNvMs1_NtCs5tBpiHiFbgs_14pforge_runtime7timeoutNtB5_15RetryMiddleware3new
FN:137,_RNvMs1_NtCs5tBpiHiFbgs_14pforge_runtime7timeoutNtB5_15RetryMiddleware6policy
FN:117,_RNvXs0_NtCs5tBpiHiFbgs_14pforge_runtime7timeoutNtB5_11RetryPolicyNtNtCs5GmCzIpY9Qj_4core7default7Default7default
FN:36,_RNvXs2_NtCs5tBpiHiFbgs_14pforge_runtime7timeoutNtB5_17TimeoutMiddlewareNtNtB7_10middleware10Middleware5after
FN:32,_RNvXs2_NtCs5tBpiHiFbgs_14pforge_runtime7timeoutNtB5_17TimeoutMiddlewareNtNtB7_10middleware10Middleware6before
FN:144,_RNvXs5_NtCs5tBpiHiFbgs_14pforge_runtime7timeoutNtB5_15RetryMiddlewareNtNtB7_10middleware10Middleware8on_error
FN:187,_RINvNtCs5tBpiHiFbgs_14pforge_runtime7timeout12with_timeoutNCNCNCNCNvNtB2_5testss_31test_combined_timeout_and_retry0000EB4_
FN:187,_RINvNtCs5tBpiHiFbgs_14pforge_runtime7timeout12with_timeoutNCNCNvNtB2_5testss_25test_with_timeout_success00EB4_
FN:187,_RINvNtCs5tBpiHiFbgs_14pforge_runtime7timeout12with_timeoutNCNCNvNtB2_5testss_26test_with_timeout_exceeded00EB4_
FN:153,_RINvNtCs5tBpiHiFbgs_14pforge_runtime7timeout17retry_with_policyNCNCNvNtB2_5testss_30test_retry_non_retryable_error00NCNCB11_00uEB4_
FN:153,_RINvNtCs5tBpiHiFbgs_14pforge_runtime7timeout17retry_with_policyNCNCNvNtB2_5testss_30test_retry_with_policy_success00NCNCB11_00lEB4_
FN:153,_RINvNtCs5tBpiHiFbgs_14pforge_runtime7timeout17retry_with_policyNCNCNvNtB2_5testss_31test_combined_timeout_and_retry00NCNCB11_00lEB4_
FN:153,_RINvNtCs5tBpiHiFbgs_14pforge_runtime7timeout17retry_with_policyNCNCNvNtB2_5testss_35test_retry_with_policy_max_attempts00NCNCB11_00uEB4_
FN:190,_RNCINvNtCs5tBpiHiFbgs_14pforge_runtime7timeout12with_timeoutNCNCNCNCNvNtB4_5testss_31test_combined_timeout_and_retry0000E0B6_
FN:190,_RNCINvNtCs5tBpiHiFbgs_14pforge_runtime7timeout12with_timeoutNCNCNvNtB4_5testss_25test_with_timeout_success00E0B6_
FN:190,_RNCINvNtCs5tBpiHiFbgs_14pforge_runtime7timeout12with_timeoutNCNCNvNtB4_5testss_26test_with_timeout_exceeded00E0B6_
FN:160,_RNCINvNtCs5tBpiHiFbgs_14pforge_runtime7timeout17retry_with_policyNCNCNvNtB4_5testss_30test_retry_non_retryable_error00NCNCB13_00uE0B6_
FN:160,_RNCINvNtCs5tBpiHiFbgs_14pforge_runtime7timeout17retry_with_policyNCNCNvNtB4_5testss_30test_retry_with_policy_success00NCNCB13_00lE0B6_
FN:160,_RNCINvNtCs5tBpiHiFbgs_14pforge_runtime7timeout17retry_with_policyNCNCNvNtB4_5testss_31test_combined_timeout_and_retry00NCNCB13_00lE0B6_
FN:160,_RNCINvNtCs5tBpiHiFbgs_14pforge_runtime7timeout17retry_with_policyNCNCNvNtB4_5testss_35test_retry_with_policy_max_attempts00NCNCB13_00uE0B6_
FN:193,_RNCNCINvNtCs5tBpiHiFbgs_14pforge_runtime7timeout12with_timeoutNCNCNCNCNvNtB6_5testss_31test_combined_timeout_and_retry0000E00B8_
FN:193,_RNCNCINvNtCs5tBpiHiFbgs_14pforge_runtime7timeout12with_timeoutNCNCNvNtB6_5testss_25test_with_timeout_success00E00B8_
FN:193,_RNCNCINvNtCs5tBpiHiFbgs_14pforge_runtime7timeout12with_timeoutNCNCNvNtB6_5testss_26test_with_timeout_exceeded00E00B8_
FN:183,_RNCNCINvNtCs5tBpiHiFbgs_14pforge_runtime7timeout17retry_with_policyNCNCNvNtB6_5testss_30test_retry_non_retryable_error00NCNCB15_00uE00B8_
FN:183,_RNCNCINvNtCs5tBpiHiFbgs_14pforge_runtime7timeout17retry_with_policyNCNCNvNtB6_5testss_30test_retry_with_policy_success00NCNCB15_00lE00B8_
FN:183,_RNCNCINvNtCs5tBpiHiFbgs_14pforge_runtime7timeout17retry_with_policyNCNCNvNtB6_5testss_31test_combined_timeout_and_retry00NCNCB15_00lE00B8_
FN:183,_RNCNCINvNtCs5tBpiHiFbgs_14pforge_runtime7timeout17retry_with_policyNCNCNvNtB6_5testss_35test_retry_with_policy_max_attempts00NCNCB15_00uE00B8_
FN:203,_RNvNtNtCs5tBpiHiFbgs_14pforge_runtime7timeout5testss_25test_retry_policy_backoff
FN:299,_RNvNtNtCs5tBpiHiFbgs_14pforge_runtime7timeout5testss_25test_with_timeout_success
FN:311,_RNvNtNtCs5tBpiHiFbgs_14pforge_runtime7timeout5testss_26test_with_timeout_exceeded
FN:219,_RNvNtNtCs5tBpiHiFbgs_14pforge_runtime7timeout5testss_29test_retry_policy_max_backoff
FN:279,_RNvNtNtCs5tBpiHiFbgs_14pforge_runtime7timeout5testss_30test_retry_non_retryable_error
FN:230,_RNvNtNtCs5tBpiHiFbgs_14pforge_runtime7timeout5testss_30test_retry_with_policy_success
FN:323,_RNvNtNtCs5tBpiHiFbgs_14pforge_runtime7timeout5testss_31test_combined_timeout_and_retry
FN:257,_RNvNtNtCs5tBpiHiFbgs_14pforge_runtime7timeout5testss_35test_retry_with_policy_max_attempts
FNDA:0,_RINvNtCsbgyBtKT5UPh_14pforge_runtime7timeout12with_timeoutNCNCNCNCNvCs4NrvKuwgNTo_11integrations_23test_retry_with_timeout0000EB14_
FNDA:0,_RINvNtCsbgyBtKT5UPh_14pforge_runtime7timeout17retry_with_policyNCNCNvCs4NrvKuwgNTo_11integrations_23test_retry_with_timeout00NCNCB11_00lEB15_
FNDA:0,_RNCINvNtCsbgyBtKT5UPh_14pforge_runtime7timeout12with_timeoutNCNCNCNCNvCs4NrvKuwgNTo_11integrations_23test_retry_with_timeout0000E0B16_
FNDA:0,_RNCINvNtCsbgyBtKT5UPh_14pforge_runtime7timeout17retry_with_policyNCNCNvCs4NrvKuwgNTo_11integrations_23test_retry_with_timeout00NCNCB13_00lE0B17_
FNDA:0,_RNCNCINvNtCsbgyBtKT5UPh_14pforge_runtime7timeout12with_timeoutNCNCNCNCNvCs4NrvKuwgNTo_11integrations_23test_retry_with_timeout0000E00B18_
FNDA:0,_RNCNCINvNtCsbgyBtKT5UPh_14pforge_runtime7timeout17retry_with_policyNCNCNvCs4NrvKuwgNTo_11integrations_23test_retry_with_timeout00NCNCB15_00lE00B19_
FNDA:0,_RNvMNtCsbgyBtKT5UPh_14pforge_runtime7timeoutNtB2_17TimeoutMiddleware11from_millis
FNDA:0,_RNvMNtCsbgyBtKT5UPh_14pforge_runtime7timeoutNtB2_17TimeoutMiddleware3new
FNDA:0,_RNvMNtCsbgyBtKT5UPh_14pforge_runtime7timeoutNtB2_17TimeoutMiddleware8duration
FNDA:0,_RNvMNtCsbgyBtKT5UPh_14pforge_runtime7timeoutNtB2_17TimeoutMiddleware9from_secs
FNDA:0,_RNvMs1_NtCsbgyBtKT5UPh_14pforge_runtime7timeoutNtB5_15RetryMiddleware17with_max_attempts
FNDA:0,_RNvMs1_NtCsbgyBtKT5UPh_14pforge_runtime7timeoutNtB5_15RetryMiddleware3new
FNDA:0,_RNvMs1_NtCsbgyBtKT5UPh_14pforge_runtime7timeoutNtB5_15RetryMiddleware6policy
FNDA:0,_RNvMs_NtCsbgyBtKT5UPh_14pforge_runtime7timeoutNtB4_11RetryPolicy11with_jitter
FNDA:0,_RNvMs_NtCsbgyBtKT5UPh_14pforge_runtime7timeoutNtB4_11RetryPolicy12is_retryable
FNDA:0,_RNvMs_NtCsbgyBtKT5UPh_14pforge_runtime7timeoutNtB4_11RetryPolicy12with_backoff
FNDA:0,_RNvMs_NtCsbgyBtKT5UPh_14pforge_runtime7timeoutNtB4_11RetryPolicy15with_multiplier
FNDA:0,_RNvMs_NtCsbgyBtKT5UPh_14pforge_runtime7timeoutNtB4_11RetryPolicy16backoff_duration
FNDA:0,_RNvMs_NtCsbgyBtKT5UPh_14pforge_runtime7timeoutNtB4_11RetryPolicy3new
FNDA:0,_RNvXs0_NtCsbgyBtKT5UPh_14pforge_runtime7timeoutNtB5_11RetryPolicyNtNtCs5GmCzIpY9Qj_4core7default7Default7default
FNDA:0,_RNvXs2_NtCsbgyBtKT5UPh_14pforge_runtime7timeoutNtB5_17TimeoutMiddlewareNtNtB7_10middleware10Middleware5after
FNDA:0,_RNvXs2_NtCsbgyBtKT5UPh_14pforge_runtime7timeoutNtB5_17TimeoutMiddlewareNtNtB7_10middleware10Middleware6before
FNDA:0,_RNvXs5_NtCsbgyBtKT5UPh_14pforge_runtime7timeoutNtB5_15RetryMiddlewareNtNtB7_10middleware10Middleware8on_error
FNDA:0,_RNCNCNCNCNvNtNtCs5tBpiHiFbgs_14pforge_runtime7timeout5testss_31test_combined_timeout_and_retry0000Bd_
FNDA:0,_RNCNCNCNvNtNtCs5tBpiHiFbgs_14pforge_runtime7timeout5testss_30test_retry_non_retryable_error000Bb_
FNDA:0,_RNCNCNCNvNtNtCs5tBpiHiFbgs_14pforge_runtime7timeout5testss_30test_retry_with_policy_success000Bb_
FNDA:0,_RNCNCNCNvNtNtCs5tBpiHiFbgs_14pforge_runtime7timeout5testss_31test_combined_timeout_and_retry000Bb_
FNDA:0,_RNCNCNCNvNtNtCs5tBpiHiFbgs_14pforge_runtime7timeout5testss_35test_retry_with_policy_max_attempts000Bb_
FNDA:0,_RNCNCNvNtNtCs5tBpiHiFbgs_14pforge_runtime7timeout5testss_25test_with_timeout_success00B9_
FNDA:0,_RNCNCNvNtNtCs5tBpiHiFbgs_14pforge_runtime7timeout5testss_26test_with_timeout_exceeded00B9_
FNDA:0,_RNCNCNvNtNtCs5tBpiHiFbgs_14pforge_runtime7timeout5testss_30test_retry_non_retryable_error00B9_
FNDA:0,_RNCNCNvNtNtCs5tBpiHiFbgs_14pforge_runtime7timeout5testss_30test_retry_with_policy_success00B9_
FNDA:0,_RNCNCNvNtNtCs5tBpiHiFbgs_14pforge_runtime7timeout5testss_31test_combined_timeout_and_retry00B9_
FNDA:0,_RNCNCNvNtNtCs5tBpiHiFbgs_14pforge_runtime7timeout5testss_35test_retry_with_policy_max_attempts00B9_
FNDA:0,_RNCNvNtNtCs5tBpiHiFbgs_14pforge_runtime7timeout5testss_25test_with_timeout_success0B7_
FNDA:0,_RNCNvNtNtCs5tBpiHiFbgs_14pforge_runtime7timeout5testss_26test_with_timeout_exceeded0B7_
FNDA:0,_RNCNvNtNtCs5tBpiHiFbgs_14pforge_runtime7timeout5testss_30test_retry_non_retryable_error0B7_
FNDA:0,_RNCNvNtNtCs5tBpiHiFbgs_14pforge_runtime7timeout5testss_30test_retry_with_policy_success0B7_
FNDA:0,_RNCNvNtNtCs5tBpiHiFbgs_14pforge_runtime7timeout5testss_31test_combined_timeout_and_retry0B7_
FNDA:0,_RNCNvNtNtCs5tBpiHiFbgs_14pforge_runtime7timeout5testss_35test_retry_with_policy_max_attempts0B7_
FNDA:0,_RNvMs_NtCs5tBpiHiFbgs_14pforge_runtime7timeoutNtB4_11RetryPolicy11with_jitter
FNDA:0,_RNvMs_NtCs5tBpiHiFbgs_14pforge_runtime7timeoutNtB4_11RetryPolicy12is_retryable
FNDA:0,_RNvMs_NtCs5tBpiHiFbgs_14pforge_runtime7timeoutNtB4_11RetryPolicy12with_backoff
FNDA:0,_RNvMs_NtCs5tBpiHiFbgs_14pforge_runtime7timeoutNtB4_11RetryPolicy15with_multiplier
FNDA:0,_RNvMs_NtCs5tBpiHiFbgs_14pforge_runtime7timeoutNtB4_11RetryPolicy16backoff_duration
FNDA:0,_RNvMs_NtCs5tBpiHiFbgs_14pforge_runtime7timeoutNtB4_11RetryPolicy3new
FNDA:0,_RNvMNtCs5tBpiHiFbgs_14pforge_runtime7timeoutNtB2_17TimeoutMiddleware11from_millis
FNDA:0,_RNvMNtCs5tBpiHiFbgs_14pforge_runtime7timeoutNtB2_17TimeoutMiddleware3new
FNDA:0,_RNvMNtCs5tBpiHiFbgs_14pforge_runtime7timeoutNtB2_17TimeoutMiddleware8duration
FNDA:0,_RNvMNtCs5tBpiHiFbgs_14pforge_runtime7timeoutNtB2_17TimeoutMiddleware9from_secs
FNDA:0,_RNvMs1_NtCs5tBpiHiFbgs_14pforge_runtime7timeoutNtB5_15RetryMiddleware17with_max_attempts
FNDA:0,_RNvMs1_NtCs5tBpiHiFbgs_14pforge_runtime7timeoutNtB5_15RetryMiddleware3new
FNDA:0,_RNvMs1_NtCs5tBpiHiFbgs_14pforge_runtime7timeoutNtB5_15RetryMiddleware6policy
FNDA:0,_RNvXs0_NtCs5tBpiHiFbgs_14pforge_runtime7timeoutNtB5_11RetryPolicyNtNtCs5GmCzIpY9Qj_4core7default7Default7default
FNDA:0,_RNvXs2_NtCs5tBpiHiFbgs_14pforge_runtime7timeoutNtB5_17TimeoutMiddlewareNtNtB7_10middleware10Middleware5after
FNDA:0,_RNvXs2_NtCs5tBpiHiFbgs_14pforge_runtime7timeoutNtB5_17TimeoutMiddlewareNtNtB7_10middleware10Middleware6before
FNDA:0,_RNvXs5_NtCs5tBpiHiFbgs_14pforge_runtime7timeoutNtB5_15RetryMiddlewareNtNtB7_10middleware10Middleware8on_error
FNDA:0,_RINvNtCs5tBpiHiFbgs_14pforge_runtime7timeout12with_timeoutNCNCNCNCNvNtB2_5testss_31test_combined_timeout_and_retry0000EB4_
FNDA:0,_RINvNtCs5tBpiHiFbgs_14pforge_runtime7timeout12with_timeoutNCNCNvNtB2_5testss_25test_with_timeout_success00EB4_
FNDA:0,_RINvNtCs5tBpiHiFbgs_14pforge_runtime7timeout12with_timeoutNCNCNvNtB2_5testss_26test_with_timeout_exceeded00EB4_
FNDA:0,_RINvNtCs5tBpiHiFbgs_14pforge_runtime7timeout17retry_with_policyNCNCNvNtB2_5testss_30test_retry_non_retryable_error00NCNCB11_00uEB4_
FNDA:0,_RINvNtCs5tBpiHiFbgs_14pforge_runtime7timeout17retry_with_policyNCNCNvNtB2_5testss_30test_retry_with_policy_success00NCNCB11_00lEB4_
FNDA:0,_RINvNtCs5tBpiHiFbgs_14pforge_runtime7timeout17retry_with_policyNCNCNvNtB2_5testss_31test_combined_timeout_and_retry00NCNCB11_00lEB4_
FNDA:0,_RINvNtCs5tBpiHiFbgs_14pforge_runtime7timeout17retry_with_policyNCNCNvNtB2_5testss_35test_retry_with_policy_max_attempts00NCNCB11_00uEB4_
FNDA:0,_RNCINvNtCs5tBpiHiFbgs_14pforge_runtime7timeout12with_timeoutNCNCNCNCNvNtB4_5testss_31test_combined_timeout_and_retry0000E0B6_
FNDA:0,_RNCINvNtCs5tBpiHiFbgs_14pforge_runtime7timeout12with_timeoutNCNCNvNtB4_5testss_25test_with_timeout_success00E0B6_
FNDA:0,_RNCINvNtCs5tBpiHiFbgs_14pforge_runtime7timeout12with_timeoutNCNCNvNtB4_5testss_26test_with_timeout_exceeded00E0B6_
FNDA:0,_RNCINvNtCs5tBpiHiFbgs_14pforge_runtime7timeout17retry_with_policyNCNCNvNtB4_5testss_30test_retry_non_retryable_error00NCNCB13_00uE0B6_
FNDA:0,_RNCINvNtCs5tBpiHiFbgs_14pforge_runtime7timeout17retry_with_policyNCNCNvNtB4_5testss_30test_retry_with_policy_success00NCNCB13_00lE0B6_
FNDA:0,_RNCINvNtCs5tBpiHiFbgs_14pforge_runtime7timeout17retry_with_policyNCNCNvNtB4_5testss_31test_combined_timeout_and_retry00NCNCB13_00lE0B6_
FNDA:0,_RNCINvNtCs5tBpiHiFbgs_14pforge_runtime7timeout17retry_with_policyNCNCNvNtB4_5testss_35test_retry_with_policy_max_attempts00NCNCB13_00uE0B6_
FNDA:0,_RNCNCINvNtCs5tBpiHiFbgs_14pforge_runtime7timeout12with_timeoutNCNCNCNCNvNtB6_5testss_31test_combined_timeout_and_retry0000E00B8_
FNDA:0,_RNCNCINvNtCs5tBpiHiFbgs_14pforge_runtime7timeout12with_timeoutNCNCNvNtB6_5testss_25test_with_timeout_success00E00B8_
FNDA:0,_RNCNCINvNtCs5tBpiHiFbgs_14pforge_runtime7timeout12with_timeoutNCNCNvNtB6_5testss_26test_with_timeout_exceeded00E00B8_
FNDA:0,_RNCNCINvNtCs5tBpiHiFbgs_14pforge_runtime7timeout17retry_with_policyNCNCNvNtB6_5testss_30test_retry_non_retryable_error00NCNCB15_00uE00B8_
FNDA:0,_RNCNCINvNtCs5tBpiHiFbgs_14pforge_runtime7timeout17retry_with_policyNCNCNvNtB6_5testss_30test_retry_with_policy_success00NCNCB15_00lE00B8_
FNDA:0,_RNCNCINvNtCs5tBpiHiFbgs_14pforge_runtime7timeout17retry_with_policyNCNCNvNtB6_5testss_31test_combined_timeout_and_retry00NCNCB15_00lE00B8_
FNDA:0,_RNCNCINvNtCs5tBpiHiFbgs_14pforge_runtime7timeout17retry_with_policyNCNCNvNtB6_5testss_35test_retry_with_policy_max_attempts00NCNCB15_00uE00B8_
FNDA:0,_RNvNtNtCs5tBpiHiFbgs_14pforge_runtime7timeout5testss_25test_retry_policy_backoff
FNDA:0,_RNvNtNtCs5tBpiHiFbgs_14pforge_runtime7timeout5testss_25test_with_timeout_success
FNDA:0,_RNvNtNtCs5tBpiHiFbgs_14pforge_runtime7timeout5testss_26test_with_timeout_exceeded
FNDA:0,_RNvNtNtCs5tBpiHiFbgs_14pforge_runtime7timeout5testss_29test_retry_policy_max_backoff
FNDA:0,_RNvNtNtCs5tBpiHiFbgs_14pforge_runtime7timeout5testss_30test_retry_non_retryable_error
FNDA:0,_RNvNtNtCs5tBpiHiFbgs_14pforge_runtime7timeout5testss_30test_retry_with_policy_success
FNDA:0,_RNvNtNtCs5tBpiHiFbgs_14pforge_runtime7timeout5testss_31test_combined_timeout_and_retry
FNDA:0,_RNvNtNtCs5tBpiHiFbgs_14pforge_runtime7timeout5testss_35test_retry_with_policy_max_attempts
FNF:48
FNH:0
DA:13,0
DA:14,0
DA:15,0
DA:17,0
DA:18,0
DA:19,0
DA:21,0
DA:22,0
DA:23,0
DA:25,0
DA:26,0
DA:27,0
DA:32,0
DA:34,0
DA:36,0
DA:38,0
DA:57,0
DA:58,0
DA:59,0
DA:60,0
DA:61,0
DA:62,0
DA:63,0
DA:64,0
DA:65,0
DA:67,0
DA:68,0
DA:69,0
DA:70,0
DA:71,0
DA:73,0
DA:74,0
DA:75,0
DA:76,0
DA:78,0
DA:79,0
DA:80,0
DA:81,0
DA:84,0
DA:85,0
DA:86,0
DA:88,0
DA:90,0
DA:91,0
DA:92,0
DA:94,0
DA:97,0
DA:98,0
DA:101,0
DA:103,0
DA:104,0
DA:106,0
DA:107,0
DA:108,0
DA:109,0
DA:111,0
DA:113,0
DA:117,0
DA:118,0
DA:119,0
DA:129,0
DA:130,0
DA:131,0
DA:133,0
DA:134,0
DA:135,0
DA:137,0
DA:138,0
DA:139,0
DA:144,0
DA:149,0
DA:153,0
DA:154,0
DA:155,0
DA:156,0
DA:157,0
DA:158,0
DA:159,0
DA:160,0
DA:161,0
DA:162,0
DA:164,0
DA:165,0
DA:166,0
DA:167,0
DA:168,0
DA:169,0
DA:170,0
DA:172,0
DA:173,0
DA:175,0
DA:176,0
DA:177,0
DA:178,0
DA:183,0
DA:184,0
DA:187,0
DA:188,0
DA:189,0
DA:190,0
DA:191,0
DA:192,0
DA:193,0
DA:194,0
DA:203,0
DA:204,0
DA:205,0
DA:206,0
DA:207,0
DA:209,0
DA:210,0
DA:211,0
DA:213,0
DA:214,0
DA:215,0
DA:216,0
DA:219,0
DA:220,0
DA:221,0
DA:222,0
DA:223,0
DA:225,0
DA:226,0
DA:227,0
DA:230,0
DA:231,0
DA:232,0
DA:234,0
DA:235,0
DA:236,0
DA:238,0
DA:239,0
DA:240,0
DA:241,0
DA:242,0
DA:243,0
DA:245,0
DA:247,0
DA:248,0
DA:249,0
DA:251,0
DA:252,0
DA:253,0
DA:254,0
DA:257,0
DA:258,0
DA:259,0
DA:261,0
DA:262,0
DA:263,0
DA:265,0
DA:266,0
DA:267,0
DA:268,0
DA:269,0
DA:270,0
DA:271,0
DA:272,0
DA:274,0
DA:275,0
DA:276,0
DA:279,0
DA:280,0
DA:281,0
DA:283,0
DA:285,0
DA:286,0
DA:287,0
DA:288,0
DA:289,0
DA:290,0
DA:291,0
DA:292,0
DA:294,0
DA:295,0
DA:296,0
DA:299,0
DA:300,0
DA:301,0
DA:302,0
DA:303,0
DA:304,0
DA:306,0
DA:307,0
DA:308,0
DA:311,0
DA:312,0
DA:313,0
DA:314,0
DA:315,0
DA:316,0
DA:318,0
DA:319,0
DA:320,0
DA:323,0
DA:324,0
DA:325,0
DA:327,0
DA:328,0
DA:329,0
DA:331,0
DA:332,0
DA:333,0
DA:334,0
DA:335,0
DA:336,0
DA:337,0
DA:338,0
DA:339,0
DA:340,0
DA:342,0
DA:344,0
DA:345,0
DA:346,0
DA:348,0
DA:349,0
DA:350,0
DA:351,0
BRF:0
BRH:0
LF:239
LH:0
end_of_record